
kernel/kernel：     文件格式 elf64-littleriscv


Disassembly of section .text:

0000000080000000 <_entry>:
    80000000:	00009117          	auipc	sp,0x9
    80000004:	90013103          	ld	sp,-1792(sp) # 80008900 <_GLOBAL_OFFSET_TABLE_+0x8>
    80000008:	6505                	lui	a0,0x1
    8000000a:	f14025f3          	csrr	a1,mhartid
    8000000e:	0585                	addi	a1,a1,1
    80000010:	02b50533          	mul	a0,a0,a1
    80000014:	912a                	add	sp,sp,a0
    80000016:	173050ef          	jal	ra,80005988 <start>

000000008000001a <spin>:
    8000001a:	a001                	j	8000001a <spin>

000000008000001c <kfree>:
// Free the page of physical memory pointed at by pa,
// which normally should have been returned by a
// call to kalloc().  (The exception is when
// initializing the allocator; see kinit above.)
void kfree(void *pa)
{
    8000001c:	1101                	addi	sp,sp,-32
    8000001e:	ec06                	sd	ra,24(sp)
    80000020:	e822                	sd	s0,16(sp)
    80000022:	e426                	sd	s1,8(sp)
    80000024:	e04a                	sd	s2,0(sp)
    80000026:	1000                	addi	s0,sp,32
    struct run *r;

    if (((uint64)pa % PGSIZE) != 0 || (char *)pa < end || (uint64)pa >= PHYSTOP)
    80000028:	03451793          	slli	a5,a0,0x34
    8000002c:	ebb9                	bnez	a5,80000082 <kfree+0x66>
    8000002e:	84aa                	mv	s1,a0
    80000030:	00022797          	auipc	a5,0x22
    80000034:	f9078793          	addi	a5,a5,-112 # 80021fc0 <end>
    80000038:	04f56563          	bltu	a0,a5,80000082 <kfree+0x66>
    8000003c:	47c5                	li	a5,17
    8000003e:	07ee                	slli	a5,a5,0x1b
    80000040:	04f57163          	bgeu	a0,a5,80000082 <kfree+0x66>
        panic("kfree");

    // Fill with junk to catch dangling refs.
    memset(pa, 1, PGSIZE);
    80000044:	6605                	lui	a2,0x1
    80000046:	4585                	li	a1,1
    80000048:	00000097          	auipc	ra,0x0
    8000004c:	132080e7          	jalr	306(ra) # 8000017a <memset>

    r = (struct run *)pa;

    acquire(&kmem.lock);
    80000050:	00009917          	auipc	s2,0x9
    80000054:	90090913          	addi	s2,s2,-1792 # 80008950 <kmem>
    80000058:	854a                	mv	a0,s2
    8000005a:	00006097          	auipc	ra,0x6
    8000005e:	31a080e7          	jalr	794(ra) # 80006374 <acquire>
    r->next = kmem.freelist;
    80000062:	01893783          	ld	a5,24(s2)
    80000066:	e09c                	sd	a5,0(s1)
    kmem.freelist = r;
    80000068:	00993c23          	sd	s1,24(s2)
    release(&kmem.lock);
    8000006c:	854a                	mv	a0,s2
    8000006e:	00006097          	auipc	ra,0x6
    80000072:	3ba080e7          	jalr	954(ra) # 80006428 <release>
}
    80000076:	60e2                	ld	ra,24(sp)
    80000078:	6442                	ld	s0,16(sp)
    8000007a:	64a2                	ld	s1,8(sp)
    8000007c:	6902                	ld	s2,0(sp)
    8000007e:	6105                	addi	sp,sp,32
    80000080:	8082                	ret
        panic("kfree");
    80000082:	00008517          	auipc	a0,0x8
    80000086:	f8e50513          	addi	a0,a0,-114 # 80008010 <etext+0x10>
    8000008a:	00006097          	auipc	ra,0x6
    8000008e:	db2080e7          	jalr	-590(ra) # 80005e3c <panic>

0000000080000092 <freerange>:
{
    80000092:	7179                	addi	sp,sp,-48
    80000094:	f406                	sd	ra,40(sp)
    80000096:	f022                	sd	s0,32(sp)
    80000098:	ec26                	sd	s1,24(sp)
    8000009a:	e84a                	sd	s2,16(sp)
    8000009c:	e44e                	sd	s3,8(sp)
    8000009e:	e052                	sd	s4,0(sp)
    800000a0:	1800                	addi	s0,sp,48
    p = (char *)PGROUNDUP((uint64)pa_start);
    800000a2:	6785                	lui	a5,0x1
    800000a4:	fff78713          	addi	a4,a5,-1 # fff <_entry-0x7ffff001>
    800000a8:	00e504b3          	add	s1,a0,a4
    800000ac:	777d                	lui	a4,0xfffff
    800000ae:	8cf9                	and	s1,s1,a4
    for (; p + PGSIZE <= (char *)pa_end; p += PGSIZE)
    800000b0:	94be                	add	s1,s1,a5
    800000b2:	0095ee63          	bltu	a1,s1,800000ce <freerange+0x3c>
    800000b6:	892e                	mv	s2,a1
        kfree(p);
    800000b8:	7a7d                	lui	s4,0xfffff
    for (; p + PGSIZE <= (char *)pa_end; p += PGSIZE)
    800000ba:	6985                	lui	s3,0x1
        kfree(p);
    800000bc:	01448533          	add	a0,s1,s4
    800000c0:	00000097          	auipc	ra,0x0
    800000c4:	f5c080e7          	jalr	-164(ra) # 8000001c <kfree>
    for (; p + PGSIZE <= (char *)pa_end; p += PGSIZE)
    800000c8:	94ce                	add	s1,s1,s3
    800000ca:	fe9979e3          	bgeu	s2,s1,800000bc <freerange+0x2a>
}
    800000ce:	70a2                	ld	ra,40(sp)
    800000d0:	7402                	ld	s0,32(sp)
    800000d2:	64e2                	ld	s1,24(sp)
    800000d4:	6942                	ld	s2,16(sp)
    800000d6:	69a2                	ld	s3,8(sp)
    800000d8:	6a02                	ld	s4,0(sp)
    800000da:	6145                	addi	sp,sp,48
    800000dc:	8082                	ret

00000000800000de <kinit>:
{
    800000de:	1141                	addi	sp,sp,-16
    800000e0:	e406                	sd	ra,8(sp)
    800000e2:	e022                	sd	s0,0(sp)
    800000e4:	0800                	addi	s0,sp,16
    initlock(&kmem.lock, "kmem");
    800000e6:	00008597          	auipc	a1,0x8
    800000ea:	f3258593          	addi	a1,a1,-206 # 80008018 <etext+0x18>
    800000ee:	00009517          	auipc	a0,0x9
    800000f2:	86250513          	addi	a0,a0,-1950 # 80008950 <kmem>
    800000f6:	00006097          	auipc	ra,0x6
    800000fa:	1ee080e7          	jalr	494(ra) # 800062e4 <initlock>
    freerange(end, (void *)PHYSTOP);
    800000fe:	45c5                	li	a1,17
    80000100:	05ee                	slli	a1,a1,0x1b
    80000102:	00022517          	auipc	a0,0x22
    80000106:	ebe50513          	addi	a0,a0,-322 # 80021fc0 <end>
    8000010a:	00000097          	auipc	ra,0x0
    8000010e:	f88080e7          	jalr	-120(ra) # 80000092 <freerange>
}
    80000112:	60a2                	ld	ra,8(sp)
    80000114:	6402                	ld	s0,0(sp)
    80000116:	0141                	addi	sp,sp,16
    80000118:	8082                	ret

000000008000011a <kalloc>:

// Allocate one 4096-byte page of physical memory.
// Returns a pointer that the kernel can use.
// Returns 0 if the memory cannot be allocated.
void *kalloc(void)
{
    8000011a:	1101                	addi	sp,sp,-32
    8000011c:	ec06                	sd	ra,24(sp)
    8000011e:	e822                	sd	s0,16(sp)
    80000120:	e426                	sd	s1,8(sp)
    80000122:	1000                	addi	s0,sp,32
    struct run *r;

    acquire(&kmem.lock);
    80000124:	00009497          	auipc	s1,0x9
    80000128:	82c48493          	addi	s1,s1,-2004 # 80008950 <kmem>
    8000012c:	8526                	mv	a0,s1
    8000012e:	00006097          	auipc	ra,0x6
    80000132:	246080e7          	jalr	582(ra) # 80006374 <acquire>
    r = kmem.freelist;
    80000136:	6c84                	ld	s1,24(s1)
    if (r)
    80000138:	c885                	beqz	s1,80000168 <kalloc+0x4e>
        kmem.freelist = r->next;
    8000013a:	609c                	ld	a5,0(s1)
    8000013c:	00009517          	auipc	a0,0x9
    80000140:	81450513          	addi	a0,a0,-2028 # 80008950 <kmem>
    80000144:	ed1c                	sd	a5,24(a0)
    release(&kmem.lock);
    80000146:	00006097          	auipc	ra,0x6
    8000014a:	2e2080e7          	jalr	738(ra) # 80006428 <release>

    if (r)
        memset((char *)r, 5, PGSIZE); // fill with junk
    8000014e:	6605                	lui	a2,0x1
    80000150:	4595                	li	a1,5
    80000152:	8526                	mv	a0,s1
    80000154:	00000097          	auipc	ra,0x0
    80000158:	026080e7          	jalr	38(ra) # 8000017a <memset>
    return (void *)r;
}
    8000015c:	8526                	mv	a0,s1
    8000015e:	60e2                	ld	ra,24(sp)
    80000160:	6442                	ld	s0,16(sp)
    80000162:	64a2                	ld	s1,8(sp)
    80000164:	6105                	addi	sp,sp,32
    80000166:	8082                	ret
    release(&kmem.lock);
    80000168:	00008517          	auipc	a0,0x8
    8000016c:	7e850513          	addi	a0,a0,2024 # 80008950 <kmem>
    80000170:	00006097          	auipc	ra,0x6
    80000174:	2b8080e7          	jalr	696(ra) # 80006428 <release>
    if (r)
    80000178:	b7d5                	j	8000015c <kalloc+0x42>

000000008000017a <memset>:
#include "types.h"

void*
memset(void *dst, int c, uint n)
{
    8000017a:	1141                	addi	sp,sp,-16
    8000017c:	e422                	sd	s0,8(sp)
    8000017e:	0800                	addi	s0,sp,16
  char *cdst = (char *) dst;
  int i;
  for(i = 0; i < n; i++){
    80000180:	ca19                	beqz	a2,80000196 <memset+0x1c>
    80000182:	87aa                	mv	a5,a0
    80000184:	1602                	slli	a2,a2,0x20
    80000186:	9201                	srli	a2,a2,0x20
    80000188:	00a60733          	add	a4,a2,a0
    cdst[i] = c;
    8000018c:	00b78023          	sb	a1,0(a5)
  for(i = 0; i < n; i++){
    80000190:	0785                	addi	a5,a5,1
    80000192:	fee79de3          	bne	a5,a4,8000018c <memset+0x12>
  }
  return dst;
}
    80000196:	6422                	ld	s0,8(sp)
    80000198:	0141                	addi	sp,sp,16
    8000019a:	8082                	ret

000000008000019c <memcmp>:

int
memcmp(const void *v1, const void *v2, uint n)
{
    8000019c:	1141                	addi	sp,sp,-16
    8000019e:	e422                	sd	s0,8(sp)
    800001a0:	0800                	addi	s0,sp,16
  const uchar *s1, *s2;

  s1 = v1;
  s2 = v2;
  while(n-- > 0){
    800001a2:	ca05                	beqz	a2,800001d2 <memcmp+0x36>
    800001a4:	fff6069b          	addiw	a3,a2,-1 # fff <_entry-0x7ffff001>
    800001a8:	1682                	slli	a3,a3,0x20
    800001aa:	9281                	srli	a3,a3,0x20
    800001ac:	0685                	addi	a3,a3,1
    800001ae:	96aa                	add	a3,a3,a0
    if(*s1 != *s2)
    800001b0:	00054783          	lbu	a5,0(a0)
    800001b4:	0005c703          	lbu	a4,0(a1)
    800001b8:	00e79863          	bne	a5,a4,800001c8 <memcmp+0x2c>
      return *s1 - *s2;
    s1++, s2++;
    800001bc:	0505                	addi	a0,a0,1
    800001be:	0585                	addi	a1,a1,1
  while(n-- > 0){
    800001c0:	fed518e3          	bne	a0,a3,800001b0 <memcmp+0x14>
  }

  return 0;
    800001c4:	4501                	li	a0,0
    800001c6:	a019                	j	800001cc <memcmp+0x30>
      return *s1 - *s2;
    800001c8:	40e7853b          	subw	a0,a5,a4
}
    800001cc:	6422                	ld	s0,8(sp)
    800001ce:	0141                	addi	sp,sp,16
    800001d0:	8082                	ret
  return 0;
    800001d2:	4501                	li	a0,0
    800001d4:	bfe5                	j	800001cc <memcmp+0x30>

00000000800001d6 <memmove>:

void*
memmove(void *dst, const void *src, uint n)
{
    800001d6:	1141                	addi	sp,sp,-16
    800001d8:	e422                	sd	s0,8(sp)
    800001da:	0800                	addi	s0,sp,16
  const char *s;
  char *d;

  if(n == 0)
    800001dc:	c205                	beqz	a2,800001fc <memmove+0x26>
    return dst;
  
  s = src;
  d = dst;
  if(s < d && s + n > d){
    800001de:	02a5e263          	bltu	a1,a0,80000202 <memmove+0x2c>
    s += n;
    d += n;
    while(n-- > 0)
      *--d = *--s;
  } else
    while(n-- > 0)
    800001e2:	1602                	slli	a2,a2,0x20
    800001e4:	9201                	srli	a2,a2,0x20
    800001e6:	00c587b3          	add	a5,a1,a2
{
    800001ea:	872a                	mv	a4,a0
      *d++ = *s++;
    800001ec:	0585                	addi	a1,a1,1
    800001ee:	0705                	addi	a4,a4,1 # fffffffffffff001 <end+0xffffffff7ffdd041>
    800001f0:	fff5c683          	lbu	a3,-1(a1)
    800001f4:	fed70fa3          	sb	a3,-1(a4)
    while(n-- > 0)
    800001f8:	fef59ae3          	bne	a1,a5,800001ec <memmove+0x16>

  return dst;
}
    800001fc:	6422                	ld	s0,8(sp)
    800001fe:	0141                	addi	sp,sp,16
    80000200:	8082                	ret
  if(s < d && s + n > d){
    80000202:	02061693          	slli	a3,a2,0x20
    80000206:	9281                	srli	a3,a3,0x20
    80000208:	00d58733          	add	a4,a1,a3
    8000020c:	fce57be3          	bgeu	a0,a4,800001e2 <memmove+0xc>
    d += n;
    80000210:	96aa                	add	a3,a3,a0
    while(n-- > 0)
    80000212:	fff6079b          	addiw	a5,a2,-1
    80000216:	1782                	slli	a5,a5,0x20
    80000218:	9381                	srli	a5,a5,0x20
    8000021a:	fff7c793          	not	a5,a5
    8000021e:	97ba                	add	a5,a5,a4
      *--d = *--s;
    80000220:	177d                	addi	a4,a4,-1
    80000222:	16fd                	addi	a3,a3,-1
    80000224:	00074603          	lbu	a2,0(a4)
    80000228:	00c68023          	sb	a2,0(a3)
    while(n-- > 0)
    8000022c:	fee79ae3          	bne	a5,a4,80000220 <memmove+0x4a>
    80000230:	b7f1                	j	800001fc <memmove+0x26>

0000000080000232 <memcpy>:

// memcpy exists to placate GCC.  Use memmove.
void*
memcpy(void *dst, const void *src, uint n)
{
    80000232:	1141                	addi	sp,sp,-16
    80000234:	e406                	sd	ra,8(sp)
    80000236:	e022                	sd	s0,0(sp)
    80000238:	0800                	addi	s0,sp,16
  return memmove(dst, src, n);
    8000023a:	00000097          	auipc	ra,0x0
    8000023e:	f9c080e7          	jalr	-100(ra) # 800001d6 <memmove>
}
    80000242:	60a2                	ld	ra,8(sp)
    80000244:	6402                	ld	s0,0(sp)
    80000246:	0141                	addi	sp,sp,16
    80000248:	8082                	ret

000000008000024a <strncmp>:

int
strncmp(const char *p, const char *q, uint n)
{
    8000024a:	1141                	addi	sp,sp,-16
    8000024c:	e422                	sd	s0,8(sp)
    8000024e:	0800                	addi	s0,sp,16
  while(n > 0 && *p && *p == *q)
    80000250:	ce11                	beqz	a2,8000026c <strncmp+0x22>
    80000252:	00054783          	lbu	a5,0(a0)
    80000256:	cf89                	beqz	a5,80000270 <strncmp+0x26>
    80000258:	0005c703          	lbu	a4,0(a1)
    8000025c:	00f71a63          	bne	a4,a5,80000270 <strncmp+0x26>
    n--, p++, q++;
    80000260:	367d                	addiw	a2,a2,-1
    80000262:	0505                	addi	a0,a0,1
    80000264:	0585                	addi	a1,a1,1
  while(n > 0 && *p && *p == *q)
    80000266:	f675                	bnez	a2,80000252 <strncmp+0x8>
  if(n == 0)
    return 0;
    80000268:	4501                	li	a0,0
    8000026a:	a809                	j	8000027c <strncmp+0x32>
    8000026c:	4501                	li	a0,0
    8000026e:	a039                	j	8000027c <strncmp+0x32>
  if(n == 0)
    80000270:	ca09                	beqz	a2,80000282 <strncmp+0x38>
  return (uchar)*p - (uchar)*q;
    80000272:	00054503          	lbu	a0,0(a0)
    80000276:	0005c783          	lbu	a5,0(a1)
    8000027a:	9d1d                	subw	a0,a0,a5
}
    8000027c:	6422                	ld	s0,8(sp)
    8000027e:	0141                	addi	sp,sp,16
    80000280:	8082                	ret
    return 0;
    80000282:	4501                	li	a0,0
    80000284:	bfe5                	j	8000027c <strncmp+0x32>

0000000080000286 <strncpy>:

char*
strncpy(char *s, const char *t, int n)
{
    80000286:	1141                	addi	sp,sp,-16
    80000288:	e422                	sd	s0,8(sp)
    8000028a:	0800                	addi	s0,sp,16
  char *os;

  os = s;
  while(n-- > 0 && (*s++ = *t++) != 0)
    8000028c:	872a                	mv	a4,a0
    8000028e:	8832                	mv	a6,a2
    80000290:	367d                	addiw	a2,a2,-1
    80000292:	01005963          	blez	a6,800002a4 <strncpy+0x1e>
    80000296:	0705                	addi	a4,a4,1
    80000298:	0005c783          	lbu	a5,0(a1)
    8000029c:	fef70fa3          	sb	a5,-1(a4)
    800002a0:	0585                	addi	a1,a1,1
    800002a2:	f7f5                	bnez	a5,8000028e <strncpy+0x8>
    ;
  while(n-- > 0)
    800002a4:	86ba                	mv	a3,a4
    800002a6:	00c05c63          	blez	a2,800002be <strncpy+0x38>
    *s++ = 0;
    800002aa:	0685                	addi	a3,a3,1
    800002ac:	fe068fa3          	sb	zero,-1(a3)
  while(n-- > 0)
    800002b0:	40d707bb          	subw	a5,a4,a3
    800002b4:	37fd                	addiw	a5,a5,-1
    800002b6:	010787bb          	addw	a5,a5,a6
    800002ba:	fef048e3          	bgtz	a5,800002aa <strncpy+0x24>
  return os;
}
    800002be:	6422                	ld	s0,8(sp)
    800002c0:	0141                	addi	sp,sp,16
    800002c2:	8082                	ret

00000000800002c4 <safestrcpy>:

// Like strncpy but guaranteed to NUL-terminate.
char*
safestrcpy(char *s, const char *t, int n)
{
    800002c4:	1141                	addi	sp,sp,-16
    800002c6:	e422                	sd	s0,8(sp)
    800002c8:	0800                	addi	s0,sp,16
  char *os;

  os = s;
  if(n <= 0)
    800002ca:	02c05363          	blez	a2,800002f0 <safestrcpy+0x2c>
    800002ce:	fff6069b          	addiw	a3,a2,-1
    800002d2:	1682                	slli	a3,a3,0x20
    800002d4:	9281                	srli	a3,a3,0x20
    800002d6:	96ae                	add	a3,a3,a1
    800002d8:	87aa                	mv	a5,a0
    return os;
  while(--n > 0 && (*s++ = *t++) != 0)
    800002da:	00d58963          	beq	a1,a3,800002ec <safestrcpy+0x28>
    800002de:	0585                	addi	a1,a1,1
    800002e0:	0785                	addi	a5,a5,1
    800002e2:	fff5c703          	lbu	a4,-1(a1)
    800002e6:	fee78fa3          	sb	a4,-1(a5)
    800002ea:	fb65                	bnez	a4,800002da <safestrcpy+0x16>
    ;
  *s = 0;
    800002ec:	00078023          	sb	zero,0(a5)
  return os;
}
    800002f0:	6422                	ld	s0,8(sp)
    800002f2:	0141                	addi	sp,sp,16
    800002f4:	8082                	ret

00000000800002f6 <strlen>:

int
strlen(const char *s)
{
    800002f6:	1141                	addi	sp,sp,-16
    800002f8:	e422                	sd	s0,8(sp)
    800002fa:	0800                	addi	s0,sp,16
  int n;

  for(n = 0; s[n]; n++)
    800002fc:	00054783          	lbu	a5,0(a0)
    80000300:	cf91                	beqz	a5,8000031c <strlen+0x26>
    80000302:	0505                	addi	a0,a0,1
    80000304:	87aa                	mv	a5,a0
    80000306:	4685                	li	a3,1
    80000308:	9e89                	subw	a3,a3,a0
    8000030a:	00f6853b          	addw	a0,a3,a5
    8000030e:	0785                	addi	a5,a5,1
    80000310:	fff7c703          	lbu	a4,-1(a5)
    80000314:	fb7d                	bnez	a4,8000030a <strlen+0x14>
    ;
  return n;
}
    80000316:	6422                	ld	s0,8(sp)
    80000318:	0141                	addi	sp,sp,16
    8000031a:	8082                	ret
  for(n = 0; s[n]; n++)
    8000031c:	4501                	li	a0,0
    8000031e:	bfe5                	j	80000316 <strlen+0x20>

0000000080000320 <main>:
volatile static int started = 0;

// start() jumps here in supervisor mode on all CPUs.
void
main()
{
    80000320:	1141                	addi	sp,sp,-16
    80000322:	e406                	sd	ra,8(sp)
    80000324:	e022                	sd	s0,0(sp)
    80000326:	0800                	addi	s0,sp,16
  if(cpuid() == 0){
    80000328:	00001097          	auipc	ra,0x1
    8000032c:	be4080e7          	jalr	-1052(ra) # 80000f0c <cpuid>
    virtio_disk_init(); // emulated hard disk
    userinit();      // first user process
    __sync_synchronize();
    started = 1;
  } else {
    while(started == 0)
    80000330:	00008717          	auipc	a4,0x8
    80000334:	5f070713          	addi	a4,a4,1520 # 80008920 <started>
  if(cpuid() == 0){
    80000338:	c139                	beqz	a0,8000037e <main+0x5e>
    while(started == 0)
    8000033a:	431c                	lw	a5,0(a4)
    8000033c:	2781                	sext.w	a5,a5
    8000033e:	dff5                	beqz	a5,8000033a <main+0x1a>
      ;
    __sync_synchronize();
    80000340:	0ff0000f          	fence
    printf("hart %d starting\n", cpuid());
    80000344:	00001097          	auipc	ra,0x1
    80000348:	bc8080e7          	jalr	-1080(ra) # 80000f0c <cpuid>
    8000034c:	85aa                	mv	a1,a0
    8000034e:	00008517          	auipc	a0,0x8
    80000352:	cea50513          	addi	a0,a0,-790 # 80008038 <etext+0x38>
    80000356:	00006097          	auipc	ra,0x6
    8000035a:	b30080e7          	jalr	-1232(ra) # 80005e86 <printf>
    kvminithart();    // turn on paging
    8000035e:	00000097          	auipc	ra,0x0
    80000362:	0d8080e7          	jalr	216(ra) # 80000436 <kvminithart>
    trapinithart();   // install kernel trap vector
    80000366:	00002097          	auipc	ra,0x2
    8000036a:	92c080e7          	jalr	-1748(ra) # 80001c92 <trapinithart>
    plicinithart();   // ask PLIC for device interrupts
    8000036e:	00005097          	auipc	ra,0x5
    80000372:	fd2080e7          	jalr	-46(ra) # 80005340 <plicinithart>
  }

  scheduler();        
    80000376:	00001097          	auipc	ra,0x1
    8000037a:	174080e7          	jalr	372(ra) # 800014ea <scheduler>
    consoleinit();
    8000037e:	00006097          	auipc	ra,0x6
    80000382:	9ce080e7          	jalr	-1586(ra) # 80005d4c <consoleinit>
    printfinit();
    80000386:	00006097          	auipc	ra,0x6
    8000038a:	ce0080e7          	jalr	-800(ra) # 80006066 <printfinit>
    printf("\n");
    8000038e:	00008517          	auipc	a0,0x8
    80000392:	cba50513          	addi	a0,a0,-838 # 80008048 <etext+0x48>
    80000396:	00006097          	auipc	ra,0x6
    8000039a:	af0080e7          	jalr	-1296(ra) # 80005e86 <printf>
    printf("xv6 kernel is booting\n");
    8000039e:	00008517          	auipc	a0,0x8
    800003a2:	c8250513          	addi	a0,a0,-894 # 80008020 <etext+0x20>
    800003a6:	00006097          	auipc	ra,0x6
    800003aa:	ae0080e7          	jalr	-1312(ra) # 80005e86 <printf>
    printf("\n");
    800003ae:	00008517          	auipc	a0,0x8
    800003b2:	c9a50513          	addi	a0,a0,-870 # 80008048 <etext+0x48>
    800003b6:	00006097          	auipc	ra,0x6
    800003ba:	ad0080e7          	jalr	-1328(ra) # 80005e86 <printf>
    kinit();         // physical page allocator
    800003be:	00000097          	auipc	ra,0x0
    800003c2:	d20080e7          	jalr	-736(ra) # 800000de <kinit>
    kvminit();       // create kernel page table
    800003c6:	00000097          	auipc	ra,0x0
    800003ca:	326080e7          	jalr	806(ra) # 800006ec <kvminit>
    kvminithart();   // turn on paging
    800003ce:	00000097          	auipc	ra,0x0
    800003d2:	068080e7          	jalr	104(ra) # 80000436 <kvminithart>
    procinit();      // process table
    800003d6:	00001097          	auipc	ra,0x1
    800003da:	a84080e7          	jalr	-1404(ra) # 80000e5a <procinit>
    trapinit();      // trap vectors
    800003de:	00002097          	auipc	ra,0x2
    800003e2:	88c080e7          	jalr	-1908(ra) # 80001c6a <trapinit>
    trapinithart();  // install kernel trap vector
    800003e6:	00002097          	auipc	ra,0x2
    800003ea:	8ac080e7          	jalr	-1876(ra) # 80001c92 <trapinithart>
    plicinit();      // set up interrupt controller
    800003ee:	00005097          	auipc	ra,0x5
    800003f2:	f3c080e7          	jalr	-196(ra) # 8000532a <plicinit>
    plicinithart();  // ask PLIC for device interrupts
    800003f6:	00005097          	auipc	ra,0x5
    800003fa:	f4a080e7          	jalr	-182(ra) # 80005340 <plicinithart>
    binit();         // buffer cache
    800003fe:	00002097          	auipc	ra,0x2
    80000402:	0bc080e7          	jalr	188(ra) # 800024ba <binit>
    iinit();         // inode table
    80000406:	00002097          	auipc	ra,0x2
    8000040a:	75c080e7          	jalr	1884(ra) # 80002b62 <iinit>
    fileinit();      // file table
    8000040e:	00003097          	auipc	ra,0x3
    80000412:	702080e7          	jalr	1794(ra) # 80003b10 <fileinit>
    virtio_disk_init(); // emulated hard disk
    80000416:	00005097          	auipc	ra,0x5
    8000041a:	032080e7          	jalr	50(ra) # 80005448 <virtio_disk_init>
    userinit();      // first user process
    8000041e:	00001097          	auipc	ra,0x1
    80000422:	eae080e7          	jalr	-338(ra) # 800012cc <userinit>
    __sync_synchronize();
    80000426:	0ff0000f          	fence
    started = 1;
    8000042a:	4785                	li	a5,1
    8000042c:	00008717          	auipc	a4,0x8
    80000430:	4ef72a23          	sw	a5,1268(a4) # 80008920 <started>
    80000434:	b789                	j	80000376 <main+0x56>

0000000080000436 <kvminithart>:
}

// Switch h/w page table register to the kernel's page table,
// and enable paging.
void kvminithart()
{
    80000436:	1141                	addi	sp,sp,-16
    80000438:	e422                	sd	s0,8(sp)
    8000043a:	0800                	addi	s0,sp,16

// flush the TLB.
static inline void sfence_vma()
{
    // the zero, zero means flush all TLB entries.
    asm volatile("sfence.vma zero, zero");
    8000043c:	12000073          	sfence.vma
    // wait for any previous writes to the page table memory to finish.
    sfence_vma();

    w_satp(MAKE_SATP(kernel_pagetable));
    80000440:	00008797          	auipc	a5,0x8
    80000444:	4e87b783          	ld	a5,1256(a5) # 80008928 <kernel_pagetable>
    80000448:	83b1                	srli	a5,a5,0xc
    8000044a:	577d                	li	a4,-1
    8000044c:	177e                	slli	a4,a4,0x3f
    8000044e:	8fd9                	or	a5,a5,a4
    asm volatile("csrw satp, %0" : : "r"(x));
    80000450:	18079073          	csrw	satp,a5
    asm volatile("sfence.vma zero, zero");
    80000454:	12000073          	sfence.vma

    // flush stale entries from the TLB.
    sfence_vma();
}
    80000458:	6422                	ld	s0,8(sp)
    8000045a:	0141                	addi	sp,sp,16
    8000045c:	8082                	ret

000000008000045e <walk>:
//   30..38 -- 9 bits of level-2 index.
//   21..29 -- 9 bits of level-1 index.
//   12..20 -- 9 bits of level-0 index.
//    0..11 -- 12 bits of byte offset within the page.
pte_t *walk(pagetable_t pagetable, uint64 va, int alloc)
{
    8000045e:	7139                	addi	sp,sp,-64
    80000460:	fc06                	sd	ra,56(sp)
    80000462:	f822                	sd	s0,48(sp)
    80000464:	f426                	sd	s1,40(sp)
    80000466:	f04a                	sd	s2,32(sp)
    80000468:	ec4e                	sd	s3,24(sp)
    8000046a:	e852                	sd	s4,16(sp)
    8000046c:	e456                	sd	s5,8(sp)
    8000046e:	e05a                	sd	s6,0(sp)
    80000470:	0080                	addi	s0,sp,64
    80000472:	84aa                	mv	s1,a0
    80000474:	89ae                	mv	s3,a1
    80000476:	8ab2                	mv	s5,a2
    if (va >= MAXVA)
    80000478:	57fd                	li	a5,-1
    8000047a:	83e9                	srli	a5,a5,0x1a
    8000047c:	4a79                	li	s4,30
        panic("walk");

    for (int level = 2; level > 0; level--) {
    8000047e:	4b31                	li	s6,12
    if (va >= MAXVA)
    80000480:	04b7f263          	bgeu	a5,a1,800004c4 <walk+0x66>
        panic("walk");
    80000484:	00008517          	auipc	a0,0x8
    80000488:	bcc50513          	addi	a0,a0,-1076 # 80008050 <etext+0x50>
    8000048c:	00006097          	auipc	ra,0x6
    80000490:	9b0080e7          	jalr	-1616(ra) # 80005e3c <panic>
        pte_t *pte = &pagetable[PX(level, va)];
        if (*pte & PTE_V) {
            pagetable = (pagetable_t)PTE2PA(*pte);
        }
        else {
            if (!alloc || (pagetable = (pde_t *)kalloc()) == 0)
    80000494:	060a8663          	beqz	s5,80000500 <walk+0xa2>
    80000498:	00000097          	auipc	ra,0x0
    8000049c:	c82080e7          	jalr	-894(ra) # 8000011a <kalloc>
    800004a0:	84aa                	mv	s1,a0
    800004a2:	c529                	beqz	a0,800004ec <walk+0x8e>
                return 0;
            memset(pagetable, 0, PGSIZE);
    800004a4:	6605                	lui	a2,0x1
    800004a6:	4581                	li	a1,0
    800004a8:	00000097          	auipc	ra,0x0
    800004ac:	cd2080e7          	jalr	-814(ra) # 8000017a <memset>
            *pte = PA2PTE(pagetable) | PTE_V;
    800004b0:	00c4d793          	srli	a5,s1,0xc
    800004b4:	07aa                	slli	a5,a5,0xa
    800004b6:	0017e793          	ori	a5,a5,1
    800004ba:	00f93023          	sd	a5,0(s2)
    for (int level = 2; level > 0; level--) {
    800004be:	3a5d                	addiw	s4,s4,-9 # ffffffffffffeff7 <end+0xffffffff7ffdd037>
    800004c0:	036a0063          	beq	s4,s6,800004e0 <walk+0x82>
        pte_t *pte = &pagetable[PX(level, va)];
    800004c4:	0149d933          	srl	s2,s3,s4
    800004c8:	1ff97913          	andi	s2,s2,511
    800004cc:	090e                	slli	s2,s2,0x3
    800004ce:	9926                	add	s2,s2,s1
        if (*pte & PTE_V) {
    800004d0:	00093483          	ld	s1,0(s2)
    800004d4:	0014f793          	andi	a5,s1,1
    800004d8:	dfd5                	beqz	a5,80000494 <walk+0x36>
            pagetable = (pagetable_t)PTE2PA(*pte);
    800004da:	80a9                	srli	s1,s1,0xa
    800004dc:	04b2                	slli	s1,s1,0xc
    800004de:	b7c5                	j	800004be <walk+0x60>
        }
    }
    return &pagetable[PX(0, va)];
    800004e0:	00c9d513          	srli	a0,s3,0xc
    800004e4:	1ff57513          	andi	a0,a0,511
    800004e8:	050e                	slli	a0,a0,0x3
    800004ea:	9526                	add	a0,a0,s1
}
    800004ec:	70e2                	ld	ra,56(sp)
    800004ee:	7442                	ld	s0,48(sp)
    800004f0:	74a2                	ld	s1,40(sp)
    800004f2:	7902                	ld	s2,32(sp)
    800004f4:	69e2                	ld	s3,24(sp)
    800004f6:	6a42                	ld	s4,16(sp)
    800004f8:	6aa2                	ld	s5,8(sp)
    800004fa:	6b02                	ld	s6,0(sp)
    800004fc:	6121                	addi	sp,sp,64
    800004fe:	8082                	ret
                return 0;
    80000500:	4501                	li	a0,0
    80000502:	b7ed                	j	800004ec <walk+0x8e>

0000000080000504 <walkaddr>:
uint64 walkaddr(pagetable_t pagetable, uint64 va)
{
    pte_t *pte;
    uint64 pa;

    if (va >= MAXVA)
    80000504:	57fd                	li	a5,-1
    80000506:	83e9                	srli	a5,a5,0x1a
    80000508:	00b7f463          	bgeu	a5,a1,80000510 <walkaddr+0xc>
        return 0;
    8000050c:	4501                	li	a0,0
        return 0;
    if ((*pte & PTE_U) == 0)
        return 0;
    pa = PTE2PA(*pte);
    return pa;
}
    8000050e:	8082                	ret
{
    80000510:	1141                	addi	sp,sp,-16
    80000512:	e406                	sd	ra,8(sp)
    80000514:	e022                	sd	s0,0(sp)
    80000516:	0800                	addi	s0,sp,16
    pte = walk(pagetable, va, 0);
    80000518:	4601                	li	a2,0
    8000051a:	00000097          	auipc	ra,0x0
    8000051e:	f44080e7          	jalr	-188(ra) # 8000045e <walk>
    if (pte == 0)
    80000522:	c105                	beqz	a0,80000542 <walkaddr+0x3e>
    if ((*pte & PTE_V) == 0)
    80000524:	611c                	ld	a5,0(a0)
    if ((*pte & PTE_U) == 0)
    80000526:	0117f693          	andi	a3,a5,17
    8000052a:	4745                	li	a4,17
        return 0;
    8000052c:	4501                	li	a0,0
    if ((*pte & PTE_U) == 0)
    8000052e:	00e68663          	beq	a3,a4,8000053a <walkaddr+0x36>
}
    80000532:	60a2                	ld	ra,8(sp)
    80000534:	6402                	ld	s0,0(sp)
    80000536:	0141                	addi	sp,sp,16
    80000538:	8082                	ret
    pa = PTE2PA(*pte);
    8000053a:	83a9                	srli	a5,a5,0xa
    8000053c:	00c79513          	slli	a0,a5,0xc
    return pa;
    80000540:	bfcd                	j	80000532 <walkaddr+0x2e>
        return 0;
    80000542:	4501                	li	a0,0
    80000544:	b7fd                	j	80000532 <walkaddr+0x2e>

0000000080000546 <mappages>:
// Create PTEs for virtual addresses starting at va that refer to
// physical addresses starting at pa. va and size might not
// be page-aligned. Returns 0 on success, -1 if walk() couldn't
// allocate a needed page-table page.
int mappages(pagetable_t pagetable, uint64 va, uint64 size, uint64 pa, int perm)
{
    80000546:	715d                	addi	sp,sp,-80
    80000548:	e486                	sd	ra,72(sp)
    8000054a:	e0a2                	sd	s0,64(sp)
    8000054c:	fc26                	sd	s1,56(sp)
    8000054e:	f84a                	sd	s2,48(sp)
    80000550:	f44e                	sd	s3,40(sp)
    80000552:	f052                	sd	s4,32(sp)
    80000554:	ec56                	sd	s5,24(sp)
    80000556:	e85a                	sd	s6,16(sp)
    80000558:	e45e                	sd	s7,8(sp)
    8000055a:	0880                	addi	s0,sp,80
    uint64 a, last;
    pte_t *pte;

    if (size == 0)
    8000055c:	c639                	beqz	a2,800005aa <mappages+0x64>
    8000055e:	8aaa                	mv	s5,a0
    80000560:	8b3a                	mv	s6,a4
        panic("mappages: size");

    a = PGROUNDDOWN(va);
    80000562:	777d                	lui	a4,0xfffff
    80000564:	00e5f7b3          	and	a5,a1,a4
    last = PGROUNDDOWN(va + size - 1);
    80000568:	fff58993          	addi	s3,a1,-1
    8000056c:	99b2                	add	s3,s3,a2
    8000056e:	00e9f9b3          	and	s3,s3,a4
    a = PGROUNDDOWN(va);
    80000572:	893e                	mv	s2,a5
    80000574:	40f68a33          	sub	s4,a3,a5
        if (*pte & PTE_V)
            panic("mappages: remap");
        *pte = PA2PTE(pa) | perm | PTE_V;
        if (a == last)
            break;
        a += PGSIZE;
    80000578:	6b85                	lui	s7,0x1
    8000057a:	012a04b3          	add	s1,s4,s2
        if ((pte = walk(pagetable, a, 1)) == 0)
    8000057e:	4605                	li	a2,1
    80000580:	85ca                	mv	a1,s2
    80000582:	8556                	mv	a0,s5
    80000584:	00000097          	auipc	ra,0x0
    80000588:	eda080e7          	jalr	-294(ra) # 8000045e <walk>
    8000058c:	cd1d                	beqz	a0,800005ca <mappages+0x84>
        if (*pte & PTE_V)
    8000058e:	611c                	ld	a5,0(a0)
    80000590:	8b85                	andi	a5,a5,1
    80000592:	e785                	bnez	a5,800005ba <mappages+0x74>
        *pte = PA2PTE(pa) | perm | PTE_V;
    80000594:	80b1                	srli	s1,s1,0xc
    80000596:	04aa                	slli	s1,s1,0xa
    80000598:	0164e4b3          	or	s1,s1,s6
    8000059c:	0014e493          	ori	s1,s1,1
    800005a0:	e104                	sd	s1,0(a0)
        if (a == last)
    800005a2:	05390063          	beq	s2,s3,800005e2 <mappages+0x9c>
        a += PGSIZE;
    800005a6:	995e                	add	s2,s2,s7
        if ((pte = walk(pagetable, a, 1)) == 0)
    800005a8:	bfc9                	j	8000057a <mappages+0x34>
        panic("mappages: size");
    800005aa:	00008517          	auipc	a0,0x8
    800005ae:	aae50513          	addi	a0,a0,-1362 # 80008058 <etext+0x58>
    800005b2:	00006097          	auipc	ra,0x6
    800005b6:	88a080e7          	jalr	-1910(ra) # 80005e3c <panic>
            panic("mappages: remap");
    800005ba:	00008517          	auipc	a0,0x8
    800005be:	aae50513          	addi	a0,a0,-1362 # 80008068 <etext+0x68>
    800005c2:	00006097          	auipc	ra,0x6
    800005c6:	87a080e7          	jalr	-1926(ra) # 80005e3c <panic>
            return -1;
    800005ca:	557d                	li	a0,-1
        pa += PGSIZE;
    }
    return 0;
}
    800005cc:	60a6                	ld	ra,72(sp)
    800005ce:	6406                	ld	s0,64(sp)
    800005d0:	74e2                	ld	s1,56(sp)
    800005d2:	7942                	ld	s2,48(sp)
    800005d4:	79a2                	ld	s3,40(sp)
    800005d6:	7a02                	ld	s4,32(sp)
    800005d8:	6ae2                	ld	s5,24(sp)
    800005da:	6b42                	ld	s6,16(sp)
    800005dc:	6ba2                	ld	s7,8(sp)
    800005de:	6161                	addi	sp,sp,80
    800005e0:	8082                	ret
    return 0;
    800005e2:	4501                	li	a0,0
    800005e4:	b7e5                	j	800005cc <mappages+0x86>

00000000800005e6 <kvmmap>:
{
    800005e6:	1141                	addi	sp,sp,-16
    800005e8:	e406                	sd	ra,8(sp)
    800005ea:	e022                	sd	s0,0(sp)
    800005ec:	0800                	addi	s0,sp,16
    800005ee:	87b6                	mv	a5,a3
    if (mappages(kpgtbl, va, sz, pa, perm) != 0)
    800005f0:	86b2                	mv	a3,a2
    800005f2:	863e                	mv	a2,a5
    800005f4:	00000097          	auipc	ra,0x0
    800005f8:	f52080e7          	jalr	-174(ra) # 80000546 <mappages>
    800005fc:	e509                	bnez	a0,80000606 <kvmmap+0x20>
}
    800005fe:	60a2                	ld	ra,8(sp)
    80000600:	6402                	ld	s0,0(sp)
    80000602:	0141                	addi	sp,sp,16
    80000604:	8082                	ret
        panic("kvmmap");
    80000606:	00008517          	auipc	a0,0x8
    8000060a:	a7250513          	addi	a0,a0,-1422 # 80008078 <etext+0x78>
    8000060e:	00006097          	auipc	ra,0x6
    80000612:	82e080e7          	jalr	-2002(ra) # 80005e3c <panic>

0000000080000616 <kvmmake>:
{
    80000616:	1101                	addi	sp,sp,-32
    80000618:	ec06                	sd	ra,24(sp)
    8000061a:	e822                	sd	s0,16(sp)
    8000061c:	e426                	sd	s1,8(sp)
    8000061e:	e04a                	sd	s2,0(sp)
    80000620:	1000                	addi	s0,sp,32
    kpgtbl = (pagetable_t)kalloc();
    80000622:	00000097          	auipc	ra,0x0
    80000626:	af8080e7          	jalr	-1288(ra) # 8000011a <kalloc>
    8000062a:	84aa                	mv	s1,a0
    memset(kpgtbl, 0, PGSIZE);
    8000062c:	6605                	lui	a2,0x1
    8000062e:	4581                	li	a1,0
    80000630:	00000097          	auipc	ra,0x0
    80000634:	b4a080e7          	jalr	-1206(ra) # 8000017a <memset>
    kvmmap(kpgtbl, UART0, UART0, PGSIZE, PTE_R | PTE_W);
    80000638:	4719                	li	a4,6
    8000063a:	6685                	lui	a3,0x1
    8000063c:	10000637          	lui	a2,0x10000
    80000640:	100005b7          	lui	a1,0x10000
    80000644:	8526                	mv	a0,s1
    80000646:	00000097          	auipc	ra,0x0
    8000064a:	fa0080e7          	jalr	-96(ra) # 800005e6 <kvmmap>
    kvmmap(kpgtbl, VIRTIO0, VIRTIO0, PGSIZE, PTE_R | PTE_W);
    8000064e:	4719                	li	a4,6
    80000650:	6685                	lui	a3,0x1
    80000652:	10001637          	lui	a2,0x10001
    80000656:	100015b7          	lui	a1,0x10001
    8000065a:	8526                	mv	a0,s1
    8000065c:	00000097          	auipc	ra,0x0
    80000660:	f8a080e7          	jalr	-118(ra) # 800005e6 <kvmmap>
    kvmmap(kpgtbl, PLIC, PLIC, 0x400000, PTE_R | PTE_W);
    80000664:	4719                	li	a4,6
    80000666:	004006b7          	lui	a3,0x400
    8000066a:	0c000637          	lui	a2,0xc000
    8000066e:	0c0005b7          	lui	a1,0xc000
    80000672:	8526                	mv	a0,s1
    80000674:	00000097          	auipc	ra,0x0
    80000678:	f72080e7          	jalr	-142(ra) # 800005e6 <kvmmap>
    kvmmap(kpgtbl, KERNBASE, KERNBASE, (uint64)etext - KERNBASE, PTE_R | PTE_X);
    8000067c:	00008917          	auipc	s2,0x8
    80000680:	98490913          	addi	s2,s2,-1660 # 80008000 <etext>
    80000684:	4729                	li	a4,10
    80000686:	80008697          	auipc	a3,0x80008
    8000068a:	97a68693          	addi	a3,a3,-1670 # 8000 <_entry-0x7fff8000>
    8000068e:	4605                	li	a2,1
    80000690:	067e                	slli	a2,a2,0x1f
    80000692:	85b2                	mv	a1,a2
    80000694:	8526                	mv	a0,s1
    80000696:	00000097          	auipc	ra,0x0
    8000069a:	f50080e7          	jalr	-176(ra) # 800005e6 <kvmmap>
    kvmmap(kpgtbl, (uint64)etext, (uint64)etext, PHYSTOP - (uint64)etext, PTE_R | PTE_W);
    8000069e:	4719                	li	a4,6
    800006a0:	46c5                	li	a3,17
    800006a2:	06ee                	slli	a3,a3,0x1b
    800006a4:	412686b3          	sub	a3,a3,s2
    800006a8:	864a                	mv	a2,s2
    800006aa:	85ca                	mv	a1,s2
    800006ac:	8526                	mv	a0,s1
    800006ae:	00000097          	auipc	ra,0x0
    800006b2:	f38080e7          	jalr	-200(ra) # 800005e6 <kvmmap>
    kvmmap(kpgtbl, TRAMPOLINE, (uint64)trampoline, PGSIZE, PTE_R | PTE_X);
    800006b6:	4729                	li	a4,10
    800006b8:	6685                	lui	a3,0x1
    800006ba:	00007617          	auipc	a2,0x7
    800006be:	94660613          	addi	a2,a2,-1722 # 80007000 <_trampoline>
    800006c2:	040005b7          	lui	a1,0x4000
    800006c6:	15fd                	addi	a1,a1,-1 # 3ffffff <_entry-0x7c000001>
    800006c8:	05b2                	slli	a1,a1,0xc
    800006ca:	8526                	mv	a0,s1
    800006cc:	00000097          	auipc	ra,0x0
    800006d0:	f1a080e7          	jalr	-230(ra) # 800005e6 <kvmmap>
    proc_mapstacks(kpgtbl);
    800006d4:	8526                	mv	a0,s1
    800006d6:	00000097          	auipc	ra,0x0
    800006da:	6f0080e7          	jalr	1776(ra) # 80000dc6 <proc_mapstacks>
}
    800006de:	8526                	mv	a0,s1
    800006e0:	60e2                	ld	ra,24(sp)
    800006e2:	6442                	ld	s0,16(sp)
    800006e4:	64a2                	ld	s1,8(sp)
    800006e6:	6902                	ld	s2,0(sp)
    800006e8:	6105                	addi	sp,sp,32
    800006ea:	8082                	ret

00000000800006ec <kvminit>:
{
    800006ec:	1141                	addi	sp,sp,-16
    800006ee:	e406                	sd	ra,8(sp)
    800006f0:	e022                	sd	s0,0(sp)
    800006f2:	0800                	addi	s0,sp,16
    kernel_pagetable = kvmmake();
    800006f4:	00000097          	auipc	ra,0x0
    800006f8:	f22080e7          	jalr	-222(ra) # 80000616 <kvmmake>
    800006fc:	00008797          	auipc	a5,0x8
    80000700:	22a7b623          	sd	a0,556(a5) # 80008928 <kernel_pagetable>
}
    80000704:	60a2                	ld	ra,8(sp)
    80000706:	6402                	ld	s0,0(sp)
    80000708:	0141                	addi	sp,sp,16
    8000070a:	8082                	ret

000000008000070c <uvmunmap>:

// Remove npages of mappings starting from va. va must be
// page-aligned. The mappings must exist.
// Optionally free the physical memory.
void uvmunmap(pagetable_t pagetable, uint64 va, uint64 npages, int do_free)
{
    8000070c:	715d                	addi	sp,sp,-80
    8000070e:	e486                	sd	ra,72(sp)
    80000710:	e0a2                	sd	s0,64(sp)
    80000712:	fc26                	sd	s1,56(sp)
    80000714:	f84a                	sd	s2,48(sp)
    80000716:	f44e                	sd	s3,40(sp)
    80000718:	f052                	sd	s4,32(sp)
    8000071a:	ec56                	sd	s5,24(sp)
    8000071c:	e85a                	sd	s6,16(sp)
    8000071e:	e45e                	sd	s7,8(sp)
    80000720:	0880                	addi	s0,sp,80
    uint64 a;
    pte_t *pte;

    if ((va % PGSIZE) != 0)
    80000722:	03459793          	slli	a5,a1,0x34
    80000726:	e795                	bnez	a5,80000752 <uvmunmap+0x46>
    80000728:	8a2a                	mv	s4,a0
    8000072a:	892e                	mv	s2,a1
    8000072c:	8ab6                	mv	s5,a3
        panic("uvmunmap: not aligned");

    for (a = va; a < va + npages * PGSIZE; a += PGSIZE) {
    8000072e:	0632                	slli	a2,a2,0xc
    80000730:	00b609b3          	add	s3,a2,a1
        if ((pte = walk(pagetable, a, 0)) == 0)
            panic("uvmunmap: walk");
        if ((*pte & PTE_V) == 0)
            panic("uvmunmap: not mapped");
        if (PTE_FLAGS(*pte) == PTE_V)
    80000734:	4b85                	li	s7,1
    for (a = va; a < va + npages * PGSIZE; a += PGSIZE) {
    80000736:	6b05                	lui	s6,0x1
    80000738:	0735e263          	bltu	a1,s3,8000079c <uvmunmap+0x90>
            uint64 pa = PTE2PA(*pte);
            kfree((void *)pa);
        }
        *pte = 0;
    }
}
    8000073c:	60a6                	ld	ra,72(sp)
    8000073e:	6406                	ld	s0,64(sp)
    80000740:	74e2                	ld	s1,56(sp)
    80000742:	7942                	ld	s2,48(sp)
    80000744:	79a2                	ld	s3,40(sp)
    80000746:	7a02                	ld	s4,32(sp)
    80000748:	6ae2                	ld	s5,24(sp)
    8000074a:	6b42                	ld	s6,16(sp)
    8000074c:	6ba2                	ld	s7,8(sp)
    8000074e:	6161                	addi	sp,sp,80
    80000750:	8082                	ret
        panic("uvmunmap: not aligned");
    80000752:	00008517          	auipc	a0,0x8
    80000756:	92e50513          	addi	a0,a0,-1746 # 80008080 <etext+0x80>
    8000075a:	00005097          	auipc	ra,0x5
    8000075e:	6e2080e7          	jalr	1762(ra) # 80005e3c <panic>
            panic("uvmunmap: walk");
    80000762:	00008517          	auipc	a0,0x8
    80000766:	93650513          	addi	a0,a0,-1738 # 80008098 <etext+0x98>
    8000076a:	00005097          	auipc	ra,0x5
    8000076e:	6d2080e7          	jalr	1746(ra) # 80005e3c <panic>
            panic("uvmunmap: not mapped");
    80000772:	00008517          	auipc	a0,0x8
    80000776:	93650513          	addi	a0,a0,-1738 # 800080a8 <etext+0xa8>
    8000077a:	00005097          	auipc	ra,0x5
    8000077e:	6c2080e7          	jalr	1730(ra) # 80005e3c <panic>
            panic("uvmunmap: not a leaf");
    80000782:	00008517          	auipc	a0,0x8
    80000786:	93e50513          	addi	a0,a0,-1730 # 800080c0 <etext+0xc0>
    8000078a:	00005097          	auipc	ra,0x5
    8000078e:	6b2080e7          	jalr	1714(ra) # 80005e3c <panic>
        *pte = 0;
    80000792:	0004b023          	sd	zero,0(s1)
    for (a = va; a < va + npages * PGSIZE; a += PGSIZE) {
    80000796:	995a                	add	s2,s2,s6
    80000798:	fb3972e3          	bgeu	s2,s3,8000073c <uvmunmap+0x30>
        if ((pte = walk(pagetable, a, 0)) == 0)
    8000079c:	4601                	li	a2,0
    8000079e:	85ca                	mv	a1,s2
    800007a0:	8552                	mv	a0,s4
    800007a2:	00000097          	auipc	ra,0x0
    800007a6:	cbc080e7          	jalr	-836(ra) # 8000045e <walk>
    800007aa:	84aa                	mv	s1,a0
    800007ac:	d95d                	beqz	a0,80000762 <uvmunmap+0x56>
        if ((*pte & PTE_V) == 0)
    800007ae:	6108                	ld	a0,0(a0)
    800007b0:	00157793          	andi	a5,a0,1
    800007b4:	dfdd                	beqz	a5,80000772 <uvmunmap+0x66>
        if (PTE_FLAGS(*pte) == PTE_V)
    800007b6:	3ff57793          	andi	a5,a0,1023
    800007ba:	fd7784e3          	beq	a5,s7,80000782 <uvmunmap+0x76>
        if (do_free) {
    800007be:	fc0a8ae3          	beqz	s5,80000792 <uvmunmap+0x86>
            uint64 pa = PTE2PA(*pte);
    800007c2:	8129                	srli	a0,a0,0xa
            kfree((void *)pa);
    800007c4:	0532                	slli	a0,a0,0xc
    800007c6:	00000097          	auipc	ra,0x0
    800007ca:	856080e7          	jalr	-1962(ra) # 8000001c <kfree>
    800007ce:	b7d1                	j	80000792 <uvmunmap+0x86>

00000000800007d0 <uvmcreate>:

// create an empty user page table.
// returns 0 if out of memory.
pagetable_t uvmcreate()
{
    800007d0:	1101                	addi	sp,sp,-32
    800007d2:	ec06                	sd	ra,24(sp)
    800007d4:	e822                	sd	s0,16(sp)
    800007d6:	e426                	sd	s1,8(sp)
    800007d8:	1000                	addi	s0,sp,32
    pagetable_t pagetable;
    pagetable = (pagetable_t)kalloc();
    800007da:	00000097          	auipc	ra,0x0
    800007de:	940080e7          	jalr	-1728(ra) # 8000011a <kalloc>
    800007e2:	84aa                	mv	s1,a0
    if (pagetable == 0)
    800007e4:	c519                	beqz	a0,800007f2 <uvmcreate+0x22>
        return 0;
    memset(pagetable, 0, PGSIZE);
    800007e6:	6605                	lui	a2,0x1
    800007e8:	4581                	li	a1,0
    800007ea:	00000097          	auipc	ra,0x0
    800007ee:	990080e7          	jalr	-1648(ra) # 8000017a <memset>
    return pagetable;
}
    800007f2:	8526                	mv	a0,s1
    800007f4:	60e2                	ld	ra,24(sp)
    800007f6:	6442                	ld	s0,16(sp)
    800007f8:	64a2                	ld	s1,8(sp)
    800007fa:	6105                	addi	sp,sp,32
    800007fc:	8082                	ret

00000000800007fe <uvmfirst>:

// Load the user initcode into address 0 of pagetable,
// for the very first process.
// sz must be less than a page.
void uvmfirst(pagetable_t pagetable, uchar *src, uint sz)
{
    800007fe:	7179                	addi	sp,sp,-48
    80000800:	f406                	sd	ra,40(sp)
    80000802:	f022                	sd	s0,32(sp)
    80000804:	ec26                	sd	s1,24(sp)
    80000806:	e84a                	sd	s2,16(sp)
    80000808:	e44e                	sd	s3,8(sp)
    8000080a:	e052                	sd	s4,0(sp)
    8000080c:	1800                	addi	s0,sp,48
    char *mem;

    if (sz >= PGSIZE)
    8000080e:	6785                	lui	a5,0x1
    80000810:	04f67863          	bgeu	a2,a5,80000860 <uvmfirst+0x62>
    80000814:	8a2a                	mv	s4,a0
    80000816:	89ae                	mv	s3,a1
    80000818:	84b2                	mv	s1,a2
        panic("uvmfirst: more than a page");
    mem = kalloc();
    8000081a:	00000097          	auipc	ra,0x0
    8000081e:	900080e7          	jalr	-1792(ra) # 8000011a <kalloc>
    80000822:	892a                	mv	s2,a0
    memset(mem, 0, PGSIZE);
    80000824:	6605                	lui	a2,0x1
    80000826:	4581                	li	a1,0
    80000828:	00000097          	auipc	ra,0x0
    8000082c:	952080e7          	jalr	-1710(ra) # 8000017a <memset>
    mappages(pagetable, 0, PGSIZE, (uint64)mem, PTE_W | PTE_R | PTE_X | PTE_U);
    80000830:	4779                	li	a4,30
    80000832:	86ca                	mv	a3,s2
    80000834:	6605                	lui	a2,0x1
    80000836:	4581                	li	a1,0
    80000838:	8552                	mv	a0,s4
    8000083a:	00000097          	auipc	ra,0x0
    8000083e:	d0c080e7          	jalr	-756(ra) # 80000546 <mappages>
    memmove(mem, src, sz);
    80000842:	8626                	mv	a2,s1
    80000844:	85ce                	mv	a1,s3
    80000846:	854a                	mv	a0,s2
    80000848:	00000097          	auipc	ra,0x0
    8000084c:	98e080e7          	jalr	-1650(ra) # 800001d6 <memmove>
}
    80000850:	70a2                	ld	ra,40(sp)
    80000852:	7402                	ld	s0,32(sp)
    80000854:	64e2                	ld	s1,24(sp)
    80000856:	6942                	ld	s2,16(sp)
    80000858:	69a2                	ld	s3,8(sp)
    8000085a:	6a02                	ld	s4,0(sp)
    8000085c:	6145                	addi	sp,sp,48
    8000085e:	8082                	ret
        panic("uvmfirst: more than a page");
    80000860:	00008517          	auipc	a0,0x8
    80000864:	87850513          	addi	a0,a0,-1928 # 800080d8 <etext+0xd8>
    80000868:	00005097          	auipc	ra,0x5
    8000086c:	5d4080e7          	jalr	1492(ra) # 80005e3c <panic>

0000000080000870 <uvmdealloc>:
// Deallocate user pages to bring the process size from oldsz to
// newsz.  oldsz and newsz need not be page-aligned, nor does newsz
// need to be less than oldsz.  oldsz can be larger than the actual
// process size.  Returns the new process size.
uint64 uvmdealloc(pagetable_t pagetable, uint64 oldsz, uint64 newsz)
{
    80000870:	1101                	addi	sp,sp,-32
    80000872:	ec06                	sd	ra,24(sp)
    80000874:	e822                	sd	s0,16(sp)
    80000876:	e426                	sd	s1,8(sp)
    80000878:	1000                	addi	s0,sp,32
    if (newsz >= oldsz)
        return oldsz;
    8000087a:	84ae                	mv	s1,a1
    if (newsz >= oldsz)
    8000087c:	00b67d63          	bgeu	a2,a1,80000896 <uvmdealloc+0x26>
    80000880:	84b2                	mv	s1,a2

    if (PGROUNDUP(newsz) < PGROUNDUP(oldsz)) {
    80000882:	6785                	lui	a5,0x1
    80000884:	17fd                	addi	a5,a5,-1 # fff <_entry-0x7ffff001>
    80000886:	00f60733          	add	a4,a2,a5
    8000088a:	76fd                	lui	a3,0xfffff
    8000088c:	8f75                	and	a4,a4,a3
    8000088e:	97ae                	add	a5,a5,a1
    80000890:	8ff5                	and	a5,a5,a3
    80000892:	00f76863          	bltu	a4,a5,800008a2 <uvmdealloc+0x32>
        int npages = (PGROUNDUP(oldsz) - PGROUNDUP(newsz)) / PGSIZE;
        uvmunmap(pagetable, PGROUNDUP(newsz), npages, 1);
    }

    return newsz;
}
    80000896:	8526                	mv	a0,s1
    80000898:	60e2                	ld	ra,24(sp)
    8000089a:	6442                	ld	s0,16(sp)
    8000089c:	64a2                	ld	s1,8(sp)
    8000089e:	6105                	addi	sp,sp,32
    800008a0:	8082                	ret
        int npages = (PGROUNDUP(oldsz) - PGROUNDUP(newsz)) / PGSIZE;
    800008a2:	8f99                	sub	a5,a5,a4
    800008a4:	83b1                	srli	a5,a5,0xc
        uvmunmap(pagetable, PGROUNDUP(newsz), npages, 1);
    800008a6:	4685                	li	a3,1
    800008a8:	0007861b          	sext.w	a2,a5
    800008ac:	85ba                	mv	a1,a4
    800008ae:	00000097          	auipc	ra,0x0
    800008b2:	e5e080e7          	jalr	-418(ra) # 8000070c <uvmunmap>
    800008b6:	b7c5                	j	80000896 <uvmdealloc+0x26>

00000000800008b8 <uvmalloc>:
    if (newsz < oldsz)
    800008b8:	0ab66563          	bltu	a2,a1,80000962 <uvmalloc+0xaa>
{
    800008bc:	7139                	addi	sp,sp,-64
    800008be:	fc06                	sd	ra,56(sp)
    800008c0:	f822                	sd	s0,48(sp)
    800008c2:	f426                	sd	s1,40(sp)
    800008c4:	f04a                	sd	s2,32(sp)
    800008c6:	ec4e                	sd	s3,24(sp)
    800008c8:	e852                	sd	s4,16(sp)
    800008ca:	e456                	sd	s5,8(sp)
    800008cc:	e05a                	sd	s6,0(sp)
    800008ce:	0080                	addi	s0,sp,64
    800008d0:	8aaa                	mv	s5,a0
    800008d2:	8a32                	mv	s4,a2
    oldsz = PGROUNDUP(oldsz);
    800008d4:	6785                	lui	a5,0x1
    800008d6:	17fd                	addi	a5,a5,-1 # fff <_entry-0x7ffff001>
    800008d8:	95be                	add	a1,a1,a5
    800008da:	77fd                	lui	a5,0xfffff
    800008dc:	00f5f9b3          	and	s3,a1,a5
    for (a = oldsz; a < newsz; a += PGSIZE) {
    800008e0:	08c9f363          	bgeu	s3,a2,80000966 <uvmalloc+0xae>
    800008e4:	894e                	mv	s2,s3
        if (mappages(pagetable, a, PGSIZE, (uint64)mem, PTE_R | PTE_U | xperm) != 0) {
    800008e6:	0126eb13          	ori	s6,a3,18
        mem = kalloc();
    800008ea:	00000097          	auipc	ra,0x0
    800008ee:	830080e7          	jalr	-2000(ra) # 8000011a <kalloc>
    800008f2:	84aa                	mv	s1,a0
        if (mem == 0) {
    800008f4:	c51d                	beqz	a0,80000922 <uvmalloc+0x6a>
        memset(mem, 0, PGSIZE);
    800008f6:	6605                	lui	a2,0x1
    800008f8:	4581                	li	a1,0
    800008fa:	00000097          	auipc	ra,0x0
    800008fe:	880080e7          	jalr	-1920(ra) # 8000017a <memset>
        if (mappages(pagetable, a, PGSIZE, (uint64)mem, PTE_R | PTE_U | xperm) != 0) {
    80000902:	875a                	mv	a4,s6
    80000904:	86a6                	mv	a3,s1
    80000906:	6605                	lui	a2,0x1
    80000908:	85ca                	mv	a1,s2
    8000090a:	8556                	mv	a0,s5
    8000090c:	00000097          	auipc	ra,0x0
    80000910:	c3a080e7          	jalr	-966(ra) # 80000546 <mappages>
    80000914:	e90d                	bnez	a0,80000946 <uvmalloc+0x8e>
    for (a = oldsz; a < newsz; a += PGSIZE) {
    80000916:	6785                	lui	a5,0x1
    80000918:	993e                	add	s2,s2,a5
    8000091a:	fd4968e3          	bltu	s2,s4,800008ea <uvmalloc+0x32>
    return newsz;
    8000091e:	8552                	mv	a0,s4
    80000920:	a809                	j	80000932 <uvmalloc+0x7a>
            uvmdealloc(pagetable, a, oldsz);
    80000922:	864e                	mv	a2,s3
    80000924:	85ca                	mv	a1,s2
    80000926:	8556                	mv	a0,s5
    80000928:	00000097          	auipc	ra,0x0
    8000092c:	f48080e7          	jalr	-184(ra) # 80000870 <uvmdealloc>
            return 0;
    80000930:	4501                	li	a0,0
}
    80000932:	70e2                	ld	ra,56(sp)
    80000934:	7442                	ld	s0,48(sp)
    80000936:	74a2                	ld	s1,40(sp)
    80000938:	7902                	ld	s2,32(sp)
    8000093a:	69e2                	ld	s3,24(sp)
    8000093c:	6a42                	ld	s4,16(sp)
    8000093e:	6aa2                	ld	s5,8(sp)
    80000940:	6b02                	ld	s6,0(sp)
    80000942:	6121                	addi	sp,sp,64
    80000944:	8082                	ret
            kfree(mem);
    80000946:	8526                	mv	a0,s1
    80000948:	fffff097          	auipc	ra,0xfffff
    8000094c:	6d4080e7          	jalr	1748(ra) # 8000001c <kfree>
            uvmdealloc(pagetable, a, oldsz);
    80000950:	864e                	mv	a2,s3
    80000952:	85ca                	mv	a1,s2
    80000954:	8556                	mv	a0,s5
    80000956:	00000097          	auipc	ra,0x0
    8000095a:	f1a080e7          	jalr	-230(ra) # 80000870 <uvmdealloc>
            return 0;
    8000095e:	4501                	li	a0,0
    80000960:	bfc9                	j	80000932 <uvmalloc+0x7a>
        return oldsz;
    80000962:	852e                	mv	a0,a1
}
    80000964:	8082                	ret
    return newsz;
    80000966:	8532                	mv	a0,a2
    80000968:	b7e9                	j	80000932 <uvmalloc+0x7a>

000000008000096a <freewalk>:

// Recursively free page-table pages.
// All leaf mappings must already have been removed.
void freewalk(pagetable_t pagetable)
{
    8000096a:	7179                	addi	sp,sp,-48
    8000096c:	f406                	sd	ra,40(sp)
    8000096e:	f022                	sd	s0,32(sp)
    80000970:	ec26                	sd	s1,24(sp)
    80000972:	e84a                	sd	s2,16(sp)
    80000974:	e44e                	sd	s3,8(sp)
    80000976:	e052                	sd	s4,0(sp)
    80000978:	1800                	addi	s0,sp,48
    8000097a:	8a2a                	mv	s4,a0
    // there are 2^9 = 512 PTEs in a page table.
    for (int i = 0; i < 512; i++) {
    8000097c:	84aa                	mv	s1,a0
    8000097e:	6905                	lui	s2,0x1
    80000980:	992a                	add	s2,s2,a0
        pte_t pte = pagetable[i];
        if ((pte & PTE_V) && (pte & (PTE_R | PTE_W | PTE_X)) == 0) {
    80000982:	4985                	li	s3,1
    80000984:	a829                	j	8000099e <freewalk+0x34>
            // this PTE points to a lower-level page table.
            uint64 child = PTE2PA(pte);
    80000986:	83a9                	srli	a5,a5,0xa
            freewalk((pagetable_t)child);
    80000988:	00c79513          	slli	a0,a5,0xc
    8000098c:	00000097          	auipc	ra,0x0
    80000990:	fde080e7          	jalr	-34(ra) # 8000096a <freewalk>
            pagetable[i] = 0;
    80000994:	0004b023          	sd	zero,0(s1)
    for (int i = 0; i < 512; i++) {
    80000998:	04a1                	addi	s1,s1,8
    8000099a:	03248163          	beq	s1,s2,800009bc <freewalk+0x52>
        pte_t pte = pagetable[i];
    8000099e:	609c                	ld	a5,0(s1)
        if ((pte & PTE_V) && (pte & (PTE_R | PTE_W | PTE_X)) == 0) {
    800009a0:	00f7f713          	andi	a4,a5,15
    800009a4:	ff3701e3          	beq	a4,s3,80000986 <freewalk+0x1c>
        }
        else if (pte & PTE_V) {
    800009a8:	8b85                	andi	a5,a5,1
    800009aa:	d7fd                	beqz	a5,80000998 <freewalk+0x2e>
            panic("freewalk: leaf");
    800009ac:	00007517          	auipc	a0,0x7
    800009b0:	74c50513          	addi	a0,a0,1868 # 800080f8 <etext+0xf8>
    800009b4:	00005097          	auipc	ra,0x5
    800009b8:	488080e7          	jalr	1160(ra) # 80005e3c <panic>
        }
    }
    kfree((void *)pagetable);
    800009bc:	8552                	mv	a0,s4
    800009be:	fffff097          	auipc	ra,0xfffff
    800009c2:	65e080e7          	jalr	1630(ra) # 8000001c <kfree>
}
    800009c6:	70a2                	ld	ra,40(sp)
    800009c8:	7402                	ld	s0,32(sp)
    800009ca:	64e2                	ld	s1,24(sp)
    800009cc:	6942                	ld	s2,16(sp)
    800009ce:	69a2                	ld	s3,8(sp)
    800009d0:	6a02                	ld	s4,0(sp)
    800009d2:	6145                	addi	sp,sp,48
    800009d4:	8082                	ret

00000000800009d6 <uvmfree>:

// Free user memory pages,
// then free page-table pages.
void uvmfree(pagetable_t pagetable, uint64 sz)
{
    800009d6:	1101                	addi	sp,sp,-32
    800009d8:	ec06                	sd	ra,24(sp)
    800009da:	e822                	sd	s0,16(sp)
    800009dc:	e426                	sd	s1,8(sp)
    800009de:	1000                	addi	s0,sp,32
    800009e0:	84aa                	mv	s1,a0
    if (sz > 0)
    800009e2:	e999                	bnez	a1,800009f8 <uvmfree+0x22>
        uvmunmap(pagetable, 0, PGROUNDUP(sz) / PGSIZE, 1);
    freewalk(pagetable);
    800009e4:	8526                	mv	a0,s1
    800009e6:	00000097          	auipc	ra,0x0
    800009ea:	f84080e7          	jalr	-124(ra) # 8000096a <freewalk>
}
    800009ee:	60e2                	ld	ra,24(sp)
    800009f0:	6442                	ld	s0,16(sp)
    800009f2:	64a2                	ld	s1,8(sp)
    800009f4:	6105                	addi	sp,sp,32
    800009f6:	8082                	ret
        uvmunmap(pagetable, 0, PGROUNDUP(sz) / PGSIZE, 1);
    800009f8:	6785                	lui	a5,0x1
    800009fa:	17fd                	addi	a5,a5,-1 # fff <_entry-0x7ffff001>
    800009fc:	95be                	add	a1,a1,a5
    800009fe:	4685                	li	a3,1
    80000a00:	00c5d613          	srli	a2,a1,0xc
    80000a04:	4581                	li	a1,0
    80000a06:	00000097          	auipc	ra,0x0
    80000a0a:	d06080e7          	jalr	-762(ra) # 8000070c <uvmunmap>
    80000a0e:	bfd9                	j	800009e4 <uvmfree+0xe>

0000000080000a10 <uvmcopy>:
    pte_t *pte;
    uint64 pa, i;
    uint flags;
    char *mem;

    for (i = 0; i < sz; i += PGSIZE) {
    80000a10:	c679                	beqz	a2,80000ade <uvmcopy+0xce>
{
    80000a12:	715d                	addi	sp,sp,-80
    80000a14:	e486                	sd	ra,72(sp)
    80000a16:	e0a2                	sd	s0,64(sp)
    80000a18:	fc26                	sd	s1,56(sp)
    80000a1a:	f84a                	sd	s2,48(sp)
    80000a1c:	f44e                	sd	s3,40(sp)
    80000a1e:	f052                	sd	s4,32(sp)
    80000a20:	ec56                	sd	s5,24(sp)
    80000a22:	e85a                	sd	s6,16(sp)
    80000a24:	e45e                	sd	s7,8(sp)
    80000a26:	0880                	addi	s0,sp,80
    80000a28:	8b2a                	mv	s6,a0
    80000a2a:	8aae                	mv	s5,a1
    80000a2c:	8a32                	mv	s4,a2
    for (i = 0; i < sz; i += PGSIZE) {
    80000a2e:	4981                	li	s3,0
        if ((pte = walk(old, i, 0)) == 0)
    80000a30:	4601                	li	a2,0
    80000a32:	85ce                	mv	a1,s3
    80000a34:	855a                	mv	a0,s6
    80000a36:	00000097          	auipc	ra,0x0
    80000a3a:	a28080e7          	jalr	-1496(ra) # 8000045e <walk>
    80000a3e:	c531                	beqz	a0,80000a8a <uvmcopy+0x7a>
            panic("uvmcopy: pte should exist");
        if ((*pte & PTE_V) == 0)
    80000a40:	6118                	ld	a4,0(a0)
    80000a42:	00177793          	andi	a5,a4,1
    80000a46:	cbb1                	beqz	a5,80000a9a <uvmcopy+0x8a>
            panic("uvmcopy: page not present");
        pa = PTE2PA(*pte);
    80000a48:	00a75593          	srli	a1,a4,0xa
    80000a4c:	00c59b93          	slli	s7,a1,0xc
        flags = PTE_FLAGS(*pte);
    80000a50:	3ff77493          	andi	s1,a4,1023
        if ((mem = kalloc()) == 0)
    80000a54:	fffff097          	auipc	ra,0xfffff
    80000a58:	6c6080e7          	jalr	1734(ra) # 8000011a <kalloc>
    80000a5c:	892a                	mv	s2,a0
    80000a5e:	c939                	beqz	a0,80000ab4 <uvmcopy+0xa4>
            goto err;
        memmove(mem, (char *)pa, PGSIZE);
    80000a60:	6605                	lui	a2,0x1
    80000a62:	85de                	mv	a1,s7
    80000a64:	fffff097          	auipc	ra,0xfffff
    80000a68:	772080e7          	jalr	1906(ra) # 800001d6 <memmove>
        if (mappages(new, i, PGSIZE, (uint64)mem, flags) != 0) {
    80000a6c:	8726                	mv	a4,s1
    80000a6e:	86ca                	mv	a3,s2
    80000a70:	6605                	lui	a2,0x1
    80000a72:	85ce                	mv	a1,s3
    80000a74:	8556                	mv	a0,s5
    80000a76:	00000097          	auipc	ra,0x0
    80000a7a:	ad0080e7          	jalr	-1328(ra) # 80000546 <mappages>
    80000a7e:	e515                	bnez	a0,80000aaa <uvmcopy+0x9a>
    for (i = 0; i < sz; i += PGSIZE) {
    80000a80:	6785                	lui	a5,0x1
    80000a82:	99be                	add	s3,s3,a5
    80000a84:	fb49e6e3          	bltu	s3,s4,80000a30 <uvmcopy+0x20>
    80000a88:	a081                	j	80000ac8 <uvmcopy+0xb8>
            panic("uvmcopy: pte should exist");
    80000a8a:	00007517          	auipc	a0,0x7
    80000a8e:	67e50513          	addi	a0,a0,1662 # 80008108 <etext+0x108>
    80000a92:	00005097          	auipc	ra,0x5
    80000a96:	3aa080e7          	jalr	938(ra) # 80005e3c <panic>
            panic("uvmcopy: page not present");
    80000a9a:	00007517          	auipc	a0,0x7
    80000a9e:	68e50513          	addi	a0,a0,1678 # 80008128 <etext+0x128>
    80000aa2:	00005097          	auipc	ra,0x5
    80000aa6:	39a080e7          	jalr	922(ra) # 80005e3c <panic>
            kfree(mem);
    80000aaa:	854a                	mv	a0,s2
    80000aac:	fffff097          	auipc	ra,0xfffff
    80000ab0:	570080e7          	jalr	1392(ra) # 8000001c <kfree>
        }
    }
    return 0;

err:
    uvmunmap(new, 0, i / PGSIZE, 1);
    80000ab4:	4685                	li	a3,1
    80000ab6:	00c9d613          	srli	a2,s3,0xc
    80000aba:	4581                	li	a1,0
    80000abc:	8556                	mv	a0,s5
    80000abe:	00000097          	auipc	ra,0x0
    80000ac2:	c4e080e7          	jalr	-946(ra) # 8000070c <uvmunmap>
    return -1;
    80000ac6:	557d                	li	a0,-1
}
    80000ac8:	60a6                	ld	ra,72(sp)
    80000aca:	6406                	ld	s0,64(sp)
    80000acc:	74e2                	ld	s1,56(sp)
    80000ace:	7942                	ld	s2,48(sp)
    80000ad0:	79a2                	ld	s3,40(sp)
    80000ad2:	7a02                	ld	s4,32(sp)
    80000ad4:	6ae2                	ld	s5,24(sp)
    80000ad6:	6b42                	ld	s6,16(sp)
    80000ad8:	6ba2                	ld	s7,8(sp)
    80000ada:	6161                	addi	sp,sp,80
    80000adc:	8082                	ret
    return 0;
    80000ade:	4501                	li	a0,0
}
    80000ae0:	8082                	ret

0000000080000ae2 <uvmclear>:

// mark a PTE invalid for user access.
// used by exec for the user stack guard page.
void uvmclear(pagetable_t pagetable, uint64 va)
{
    80000ae2:	1141                	addi	sp,sp,-16
    80000ae4:	e406                	sd	ra,8(sp)
    80000ae6:	e022                	sd	s0,0(sp)
    80000ae8:	0800                	addi	s0,sp,16
    pte_t *pte;

    pte = walk(pagetable, va, 0);
    80000aea:	4601                	li	a2,0
    80000aec:	00000097          	auipc	ra,0x0
    80000af0:	972080e7          	jalr	-1678(ra) # 8000045e <walk>
    if (pte == 0)
    80000af4:	c901                	beqz	a0,80000b04 <uvmclear+0x22>
        panic("uvmclear");
    *pte &= ~PTE_U;
    80000af6:	611c                	ld	a5,0(a0)
    80000af8:	9bbd                	andi	a5,a5,-17
    80000afa:	e11c                	sd	a5,0(a0)
}
    80000afc:	60a2                	ld	ra,8(sp)
    80000afe:	6402                	ld	s0,0(sp)
    80000b00:	0141                	addi	sp,sp,16
    80000b02:	8082                	ret
        panic("uvmclear");
    80000b04:	00007517          	auipc	a0,0x7
    80000b08:	64450513          	addi	a0,a0,1604 # 80008148 <etext+0x148>
    80000b0c:	00005097          	auipc	ra,0x5
    80000b10:	330080e7          	jalr	816(ra) # 80005e3c <panic>

0000000080000b14 <copyout>:
// Return 0 on success, -1 on error.
int copyout(pagetable_t pagetable, uint64 dstva, char *src, uint64 len)
{
    uint64 n, va0, pa0;

    while (len > 0) {
    80000b14:	c6bd                	beqz	a3,80000b82 <copyout+0x6e>
{
    80000b16:	715d                	addi	sp,sp,-80
    80000b18:	e486                	sd	ra,72(sp)
    80000b1a:	e0a2                	sd	s0,64(sp)
    80000b1c:	fc26                	sd	s1,56(sp)
    80000b1e:	f84a                	sd	s2,48(sp)
    80000b20:	f44e                	sd	s3,40(sp)
    80000b22:	f052                	sd	s4,32(sp)
    80000b24:	ec56                	sd	s5,24(sp)
    80000b26:	e85a                	sd	s6,16(sp)
    80000b28:	e45e                	sd	s7,8(sp)
    80000b2a:	e062                	sd	s8,0(sp)
    80000b2c:	0880                	addi	s0,sp,80
    80000b2e:	8b2a                	mv	s6,a0
    80000b30:	8c2e                	mv	s8,a1
    80000b32:	8a32                	mv	s4,a2
    80000b34:	89b6                	mv	s3,a3
        va0 = PGROUNDDOWN(dstva);
    80000b36:	7bfd                	lui	s7,0xfffff
        pa0 = walkaddr(pagetable, va0);
        if (pa0 == 0)
            return -1;
        n = PGSIZE - (dstva - va0);
    80000b38:	6a85                	lui	s5,0x1
    80000b3a:	a015                	j	80000b5e <copyout+0x4a>
        if (n > len)
            n = len;
        memmove((void *)(pa0 + (dstva - va0)), src, n);
    80000b3c:	9562                	add	a0,a0,s8
    80000b3e:	0004861b          	sext.w	a2,s1
    80000b42:	85d2                	mv	a1,s4
    80000b44:	41250533          	sub	a0,a0,s2
    80000b48:	fffff097          	auipc	ra,0xfffff
    80000b4c:	68e080e7          	jalr	1678(ra) # 800001d6 <memmove>

        len -= n;
    80000b50:	409989b3          	sub	s3,s3,s1
        src += n;
    80000b54:	9a26                	add	s4,s4,s1
        dstva = va0 + PGSIZE;
    80000b56:	01590c33          	add	s8,s2,s5
    while (len > 0) {
    80000b5a:	02098263          	beqz	s3,80000b7e <copyout+0x6a>
        va0 = PGROUNDDOWN(dstva);
    80000b5e:	017c7933          	and	s2,s8,s7
        pa0 = walkaddr(pagetable, va0);
    80000b62:	85ca                	mv	a1,s2
    80000b64:	855a                	mv	a0,s6
    80000b66:	00000097          	auipc	ra,0x0
    80000b6a:	99e080e7          	jalr	-1634(ra) # 80000504 <walkaddr>
        if (pa0 == 0)
    80000b6e:	cd01                	beqz	a0,80000b86 <copyout+0x72>
        n = PGSIZE - (dstva - va0);
    80000b70:	418904b3          	sub	s1,s2,s8
    80000b74:	94d6                	add	s1,s1,s5
    80000b76:	fc99f3e3          	bgeu	s3,s1,80000b3c <copyout+0x28>
    80000b7a:	84ce                	mv	s1,s3
    80000b7c:	b7c1                	j	80000b3c <copyout+0x28>
    }
    return 0;
    80000b7e:	4501                	li	a0,0
    80000b80:	a021                	j	80000b88 <copyout+0x74>
    80000b82:	4501                	li	a0,0
}
    80000b84:	8082                	ret
            return -1;
    80000b86:	557d                	li	a0,-1
}
    80000b88:	60a6                	ld	ra,72(sp)
    80000b8a:	6406                	ld	s0,64(sp)
    80000b8c:	74e2                	ld	s1,56(sp)
    80000b8e:	7942                	ld	s2,48(sp)
    80000b90:	79a2                	ld	s3,40(sp)
    80000b92:	7a02                	ld	s4,32(sp)
    80000b94:	6ae2                	ld	s5,24(sp)
    80000b96:	6b42                	ld	s6,16(sp)
    80000b98:	6ba2                	ld	s7,8(sp)
    80000b9a:	6c02                	ld	s8,0(sp)
    80000b9c:	6161                	addi	sp,sp,80
    80000b9e:	8082                	ret

0000000080000ba0 <copyin>:
// Return 0 on success, -1 on error.
int copyin(pagetable_t pagetable, char *dst, uint64 srcva, uint64 len)
{
    uint64 n, va0, pa0;

    while (len > 0) {
    80000ba0:	caa5                	beqz	a3,80000c10 <copyin+0x70>
{
    80000ba2:	715d                	addi	sp,sp,-80
    80000ba4:	e486                	sd	ra,72(sp)
    80000ba6:	e0a2                	sd	s0,64(sp)
    80000ba8:	fc26                	sd	s1,56(sp)
    80000baa:	f84a                	sd	s2,48(sp)
    80000bac:	f44e                	sd	s3,40(sp)
    80000bae:	f052                	sd	s4,32(sp)
    80000bb0:	ec56                	sd	s5,24(sp)
    80000bb2:	e85a                	sd	s6,16(sp)
    80000bb4:	e45e                	sd	s7,8(sp)
    80000bb6:	e062                	sd	s8,0(sp)
    80000bb8:	0880                	addi	s0,sp,80
    80000bba:	8b2a                	mv	s6,a0
    80000bbc:	8a2e                	mv	s4,a1
    80000bbe:	8c32                	mv	s8,a2
    80000bc0:	89b6                	mv	s3,a3
        va0 = PGROUNDDOWN(srcva);
    80000bc2:	7bfd                	lui	s7,0xfffff
        pa0 = walkaddr(pagetable, va0);
        if (pa0 == 0)
            return -1;
        n = PGSIZE - (srcva - va0);
    80000bc4:	6a85                	lui	s5,0x1
    80000bc6:	a01d                	j	80000bec <copyin+0x4c>
        if (n > len)
            n = len;
        memmove(dst, (void *)(pa0 + (srcva - va0)), n);
    80000bc8:	018505b3          	add	a1,a0,s8
    80000bcc:	0004861b          	sext.w	a2,s1
    80000bd0:	412585b3          	sub	a1,a1,s2
    80000bd4:	8552                	mv	a0,s4
    80000bd6:	fffff097          	auipc	ra,0xfffff
    80000bda:	600080e7          	jalr	1536(ra) # 800001d6 <memmove>

        len -= n;
    80000bde:	409989b3          	sub	s3,s3,s1
        dst += n;
    80000be2:	9a26                	add	s4,s4,s1
        srcva = va0 + PGSIZE;
    80000be4:	01590c33          	add	s8,s2,s5
    while (len > 0) {
    80000be8:	02098263          	beqz	s3,80000c0c <copyin+0x6c>
        va0 = PGROUNDDOWN(srcva);
    80000bec:	017c7933          	and	s2,s8,s7
        pa0 = walkaddr(pagetable, va0);
    80000bf0:	85ca                	mv	a1,s2
    80000bf2:	855a                	mv	a0,s6
    80000bf4:	00000097          	auipc	ra,0x0
    80000bf8:	910080e7          	jalr	-1776(ra) # 80000504 <walkaddr>
        if (pa0 == 0)
    80000bfc:	cd01                	beqz	a0,80000c14 <copyin+0x74>
        n = PGSIZE - (srcva - va0);
    80000bfe:	418904b3          	sub	s1,s2,s8
    80000c02:	94d6                	add	s1,s1,s5
    80000c04:	fc99f2e3          	bgeu	s3,s1,80000bc8 <copyin+0x28>
    80000c08:	84ce                	mv	s1,s3
    80000c0a:	bf7d                	j	80000bc8 <copyin+0x28>
    }
    return 0;
    80000c0c:	4501                	li	a0,0
    80000c0e:	a021                	j	80000c16 <copyin+0x76>
    80000c10:	4501                	li	a0,0
}
    80000c12:	8082                	ret
            return -1;
    80000c14:	557d                	li	a0,-1
}
    80000c16:	60a6                	ld	ra,72(sp)
    80000c18:	6406                	ld	s0,64(sp)
    80000c1a:	74e2                	ld	s1,56(sp)
    80000c1c:	7942                	ld	s2,48(sp)
    80000c1e:	79a2                	ld	s3,40(sp)
    80000c20:	7a02                	ld	s4,32(sp)
    80000c22:	6ae2                	ld	s5,24(sp)
    80000c24:	6b42                	ld	s6,16(sp)
    80000c26:	6ba2                	ld	s7,8(sp)
    80000c28:	6c02                	ld	s8,0(sp)
    80000c2a:	6161                	addi	sp,sp,80
    80000c2c:	8082                	ret

0000000080000c2e <copyinstr>:
int copyinstr(pagetable_t pagetable, char *dst, uint64 srcva, uint64 max)
{
    uint64 n, va0, pa0;
    int got_null = 0;

    while (got_null == 0 && max > 0) {
    80000c2e:	c2dd                	beqz	a3,80000cd4 <copyinstr+0xa6>
{
    80000c30:	715d                	addi	sp,sp,-80
    80000c32:	e486                	sd	ra,72(sp)
    80000c34:	e0a2                	sd	s0,64(sp)
    80000c36:	fc26                	sd	s1,56(sp)
    80000c38:	f84a                	sd	s2,48(sp)
    80000c3a:	f44e                	sd	s3,40(sp)
    80000c3c:	f052                	sd	s4,32(sp)
    80000c3e:	ec56                	sd	s5,24(sp)
    80000c40:	e85a                	sd	s6,16(sp)
    80000c42:	e45e                	sd	s7,8(sp)
    80000c44:	0880                	addi	s0,sp,80
    80000c46:	8a2a                	mv	s4,a0
    80000c48:	8b2e                	mv	s6,a1
    80000c4a:	8bb2                	mv	s7,a2
    80000c4c:	84b6                	mv	s1,a3
        va0 = PGROUNDDOWN(srcva);
    80000c4e:	7afd                	lui	s5,0xfffff
        pa0 = walkaddr(pagetable, va0);
        if (pa0 == 0)
            return -1;
        n = PGSIZE - (srcva - va0);
    80000c50:	6985                	lui	s3,0x1
    80000c52:	a02d                	j	80000c7c <copyinstr+0x4e>
            n = max;

        char *p = (char *)(pa0 + (srcva - va0));
        while (n > 0) {
            if (*p == '\0') {
                *dst = '\0';
    80000c54:	00078023          	sb	zero,0(a5) # 1000 <_entry-0x7ffff000>
    80000c58:	4785                	li	a5,1
            dst++;
        }

        srcva = va0 + PGSIZE;
    }
    if (got_null) {
    80000c5a:	37fd                	addiw	a5,a5,-1
    80000c5c:	0007851b          	sext.w	a0,a5
        return 0;
    }
    else {
        return -1;
    }
}
    80000c60:	60a6                	ld	ra,72(sp)
    80000c62:	6406                	ld	s0,64(sp)
    80000c64:	74e2                	ld	s1,56(sp)
    80000c66:	7942                	ld	s2,48(sp)
    80000c68:	79a2                	ld	s3,40(sp)
    80000c6a:	7a02                	ld	s4,32(sp)
    80000c6c:	6ae2                	ld	s5,24(sp)
    80000c6e:	6b42                	ld	s6,16(sp)
    80000c70:	6ba2                	ld	s7,8(sp)
    80000c72:	6161                	addi	sp,sp,80
    80000c74:	8082                	ret
        srcva = va0 + PGSIZE;
    80000c76:	01390bb3          	add	s7,s2,s3
    while (got_null == 0 && max > 0) {
    80000c7a:	c8a9                	beqz	s1,80000ccc <copyinstr+0x9e>
        va0 = PGROUNDDOWN(srcva);
    80000c7c:	015bf933          	and	s2,s7,s5
        pa0 = walkaddr(pagetable, va0);
    80000c80:	85ca                	mv	a1,s2
    80000c82:	8552                	mv	a0,s4
    80000c84:	00000097          	auipc	ra,0x0
    80000c88:	880080e7          	jalr	-1920(ra) # 80000504 <walkaddr>
        if (pa0 == 0)
    80000c8c:	c131                	beqz	a0,80000cd0 <copyinstr+0xa2>
        n = PGSIZE - (srcva - va0);
    80000c8e:	417906b3          	sub	a3,s2,s7
    80000c92:	96ce                	add	a3,a3,s3
    80000c94:	00d4f363          	bgeu	s1,a3,80000c9a <copyinstr+0x6c>
    80000c98:	86a6                	mv	a3,s1
        char *p = (char *)(pa0 + (srcva - va0));
    80000c9a:	955e                	add	a0,a0,s7
    80000c9c:	41250533          	sub	a0,a0,s2
        while (n > 0) {
    80000ca0:	daf9                	beqz	a3,80000c76 <copyinstr+0x48>
    80000ca2:	87da                	mv	a5,s6
            if (*p == '\0') {
    80000ca4:	41650633          	sub	a2,a0,s6
    80000ca8:	fff48593          	addi	a1,s1,-1
    80000cac:	95da                	add	a1,a1,s6
        while (n > 0) {
    80000cae:	96da                	add	a3,a3,s6
            if (*p == '\0') {
    80000cb0:	00f60733          	add	a4,a2,a5
    80000cb4:	00074703          	lbu	a4,0(a4) # fffffffffffff000 <end+0xffffffff7ffdd040>
    80000cb8:	df51                	beqz	a4,80000c54 <copyinstr+0x26>
                *dst = *p;
    80000cba:	00e78023          	sb	a4,0(a5)
            --max;
    80000cbe:	40f584b3          	sub	s1,a1,a5
            dst++;
    80000cc2:	0785                	addi	a5,a5,1
        while (n > 0) {
    80000cc4:	fed796e3          	bne	a5,a3,80000cb0 <copyinstr+0x82>
            dst++;
    80000cc8:	8b3e                	mv	s6,a5
    80000cca:	b775                	j	80000c76 <copyinstr+0x48>
    80000ccc:	4781                	li	a5,0
    80000cce:	b771                	j	80000c5a <copyinstr+0x2c>
            return -1;
    80000cd0:	557d                	li	a0,-1
    80000cd2:	b779                	j	80000c60 <copyinstr+0x32>
    int got_null = 0;
    80000cd4:	4781                	li	a5,0
    if (got_null) {
    80000cd6:	37fd                	addiw	a5,a5,-1
    80000cd8:	0007851b          	sext.w	a0,a5
}
    80000cdc:	8082                	ret

0000000080000cde <vmprint>:

void vmprint(pagetable_t pgtbl, int level)
{
    80000cde:	7119                	addi	sp,sp,-128
    80000ce0:	fc86                	sd	ra,120(sp)
    80000ce2:	f8a2                	sd	s0,112(sp)
    80000ce4:	f4a6                	sd	s1,104(sp)
    80000ce6:	f0ca                	sd	s2,96(sp)
    80000ce8:	ecce                	sd	s3,88(sp)
    80000cea:	e8d2                	sd	s4,80(sp)
    80000cec:	e4d6                	sd	s5,72(sp)
    80000cee:	e0da                	sd	s6,64(sp)
    80000cf0:	fc5e                	sd	s7,56(sp)
    80000cf2:	f862                	sd	s8,48(sp)
    80000cf4:	f466                	sd	s9,40(sp)
    80000cf6:	f06a                	sd	s10,32(sp)
    80000cf8:	ec6e                	sd	s11,24(sp)
    80000cfa:	0100                	addi	s0,sp,128
    80000cfc:	892e                	mv	s2,a1
    // there are 2^9 = 512 PTEs in a page table.
    for (int i = 0; i < 512; i++) {
    80000cfe:	8b2a                	mv	s6,a0
    80000d00:	4a01                	li	s4,0

        pte_t pte = pgtbl[i];
        if ((pte & PTE_V) && (pte & (PTE_R | PTE_W | PTE_X)) == 0) {
    80000d02:	4c05                	li	s8,1
        else if (pte & PTE_V) {
            uint64 child = PTE2PA(pte);
            for (int j = 0; j < level; j++) {
                printf("..");
            }
            printf("%d: pte %p pa %p\n", i, pte, child);
    80000d04:	00007d97          	auipc	s11,0x7
    80000d08:	45cd8d93          	addi	s11,s11,1116 # 80008160 <etext+0x160>
            for (int j = 0; j < level; j++) {
    80000d0c:	4d01                	li	s10,0
                printf("..");
    80000d0e:	00007a97          	auipc	s5,0x7
    80000d12:	44aa8a93          	addi	s5,s5,1098 # 80008158 <etext+0x158>
            vmprint((pagetable_t)child, level + 1);
    80000d16:	0015879b          	addiw	a5,a1,1
    80000d1a:	f8f43423          	sd	a5,-120(s0)
    for (int i = 0; i < 512; i++) {
    80000d1e:	20000b93          	li	s7,512
    80000d22:	a899                	j	80000d78 <vmprint+0x9a>
            for (int j = 0; j < level; j++) {
    80000d24:	01205b63          	blez	s2,80000d3a <vmprint+0x5c>
    80000d28:	84ea                	mv	s1,s10
                printf("..");
    80000d2a:	8556                	mv	a0,s5
    80000d2c:	00005097          	auipc	ra,0x5
    80000d30:	15a080e7          	jalr	346(ra) # 80005e86 <printf>
            for (int j = 0; j < level; j++) {
    80000d34:	2485                	addiw	s1,s1,1
    80000d36:	fe991ae3          	bne	s2,s1,80000d2a <vmprint+0x4c>
            uint64 child = PTE2PA(pte);
    80000d3a:	00a9d493          	srli	s1,s3,0xa
    80000d3e:	04b2                	slli	s1,s1,0xc
            printf("%d: pte %p pa %p\n", i, pte, child);
    80000d40:	86a6                	mv	a3,s1
    80000d42:	864e                	mv	a2,s3
    80000d44:	85d2                	mv	a1,s4
    80000d46:	856e                	mv	a0,s11
    80000d48:	00005097          	auipc	ra,0x5
    80000d4c:	13e080e7          	jalr	318(ra) # 80005e86 <printf>
            vmprint((pagetable_t)child, level + 1);
    80000d50:	f8843583          	ld	a1,-120(s0)
    80000d54:	8526                	mv	a0,s1
    80000d56:	00000097          	auipc	ra,0x0
    80000d5a:	f88080e7          	jalr	-120(ra) # 80000cde <vmprint>
    80000d5e:	a809                	j	80000d70 <vmprint+0x92>
            printf("%d: pte %p pa %p\n", i, pte, child);
    80000d60:	86e6                	mv	a3,s9
    80000d62:	864e                	mv	a2,s3
    80000d64:	85d2                	mv	a1,s4
    80000d66:	856e                	mv	a0,s11
    80000d68:	00005097          	auipc	ra,0x5
    80000d6c:	11e080e7          	jalr	286(ra) # 80005e86 <printf>
    for (int i = 0; i < 512; i++) {
    80000d70:	2a05                	addiw	s4,s4,1
    80000d72:	0b21                	addi	s6,s6,8 # 1008 <_entry-0x7fffeff8>
    80000d74:	037a0a63          	beq	s4,s7,80000da8 <vmprint+0xca>
        pte_t pte = pgtbl[i];
    80000d78:	000b3983          	ld	s3,0(s6)
        if ((pte & PTE_V) && (pte & (PTE_R | PTE_W | PTE_X)) == 0) {
    80000d7c:	00f9f793          	andi	a5,s3,15
    80000d80:	fb8782e3          	beq	a5,s8,80000d24 <vmprint+0x46>
        else if (pte & PTE_V) {
    80000d84:	0019f793          	andi	a5,s3,1
    80000d88:	d7e5                	beqz	a5,80000d70 <vmprint+0x92>
            uint64 child = PTE2PA(pte);
    80000d8a:	00a9dc93          	srli	s9,s3,0xa
    80000d8e:	0cb2                	slli	s9,s9,0xc
            for (int j = 0; j < level; j++) {
    80000d90:	fd2058e3          	blez	s2,80000d60 <vmprint+0x82>
    80000d94:	84ea                	mv	s1,s10
                printf("..");
    80000d96:	8556                	mv	a0,s5
    80000d98:	00005097          	auipc	ra,0x5
    80000d9c:	0ee080e7          	jalr	238(ra) # 80005e86 <printf>
            for (int j = 0; j < level; j++) {
    80000da0:	2485                	addiw	s1,s1,1
    80000da2:	fe991ae3          	bne	s2,s1,80000d96 <vmprint+0xb8>
    80000da6:	bf6d                	j	80000d60 <vmprint+0x82>
        }
    }
    80000da8:	70e6                	ld	ra,120(sp)
    80000daa:	7446                	ld	s0,112(sp)
    80000dac:	74a6                	ld	s1,104(sp)
    80000dae:	7906                	ld	s2,96(sp)
    80000db0:	69e6                	ld	s3,88(sp)
    80000db2:	6a46                	ld	s4,80(sp)
    80000db4:	6aa6                	ld	s5,72(sp)
    80000db6:	6b06                	ld	s6,64(sp)
    80000db8:	7be2                	ld	s7,56(sp)
    80000dba:	7c42                	ld	s8,48(sp)
    80000dbc:	7ca2                	ld	s9,40(sp)
    80000dbe:	7d02                	ld	s10,32(sp)
    80000dc0:	6de2                	ld	s11,24(sp)
    80000dc2:	6109                	addi	sp,sp,128
    80000dc4:	8082                	ret

0000000080000dc6 <proc_mapstacks>:

// Allocate a page for each process's kernel stack.
// Map it high in memory, followed by an invalid
// guard page.
void proc_mapstacks(pagetable_t kpgtbl)
{
    80000dc6:	7139                	addi	sp,sp,-64
    80000dc8:	fc06                	sd	ra,56(sp)
    80000dca:	f822                	sd	s0,48(sp)
    80000dcc:	f426                	sd	s1,40(sp)
    80000dce:	f04a                	sd	s2,32(sp)
    80000dd0:	ec4e                	sd	s3,24(sp)
    80000dd2:	e852                	sd	s4,16(sp)
    80000dd4:	e456                	sd	s5,8(sp)
    80000dd6:	e05a                	sd	s6,0(sp)
    80000dd8:	0080                	addi	s0,sp,64
    80000dda:	89aa                	mv	s3,a0
    struct proc *p;

    for (p = proc; p < &proc[NPROC]; p++) {
    80000ddc:	00008497          	auipc	s1,0x8
    80000de0:	fc448493          	addi	s1,s1,-60 # 80008da0 <proc>
        char *pa = kalloc();
        if (pa == 0)
            panic("kalloc");
        uint64 va = KSTACK((int)(p - proc));
    80000de4:	8b26                	mv	s6,s1
    80000de6:	00007a97          	auipc	s5,0x7
    80000dea:	21aa8a93          	addi	s5,s5,538 # 80008000 <etext>
    80000dee:	01000937          	lui	s2,0x1000
    80000df2:	197d                	addi	s2,s2,-1 # ffffff <_entry-0x7f000001>
    80000df4:	093a                	slli	s2,s2,0xe
    for (p = proc; p < &proc[NPROC]; p++) {
    80000df6:	0000ea17          	auipc	s4,0xe
    80000dfa:	baaa0a13          	addi	s4,s4,-1110 # 8000e9a0 <tickslock>
        char *pa = kalloc();
    80000dfe:	fffff097          	auipc	ra,0xfffff
    80000e02:	31c080e7          	jalr	796(ra) # 8000011a <kalloc>
    80000e06:	862a                	mv	a2,a0
        if (pa == 0)
    80000e08:	c129                	beqz	a0,80000e4a <proc_mapstacks+0x84>
        uint64 va = KSTACK((int)(p - proc));
    80000e0a:	416485b3          	sub	a1,s1,s6
    80000e0e:	8591                	srai	a1,a1,0x4
    80000e10:	000ab783          	ld	a5,0(s5)
    80000e14:	02f585b3          	mul	a1,a1,a5
    80000e18:	00d5959b          	slliw	a1,a1,0xd
        kvmmap(kpgtbl, va, (uint64)pa, PGSIZE, PTE_R | PTE_W);
    80000e1c:	4719                	li	a4,6
    80000e1e:	6685                	lui	a3,0x1
    80000e20:	40b905b3          	sub	a1,s2,a1
    80000e24:	854e                	mv	a0,s3
    80000e26:	fffff097          	auipc	ra,0xfffff
    80000e2a:	7c0080e7          	jalr	1984(ra) # 800005e6 <kvmmap>
    for (p = proc; p < &proc[NPROC]; p++) {
    80000e2e:	17048493          	addi	s1,s1,368
    80000e32:	fd4496e3          	bne	s1,s4,80000dfe <proc_mapstacks+0x38>
    }
}
    80000e36:	70e2                	ld	ra,56(sp)
    80000e38:	7442                	ld	s0,48(sp)
    80000e3a:	74a2                	ld	s1,40(sp)
    80000e3c:	7902                	ld	s2,32(sp)
    80000e3e:	69e2                	ld	s3,24(sp)
    80000e40:	6a42                	ld	s4,16(sp)
    80000e42:	6aa2                	ld	s5,8(sp)
    80000e44:	6b02                	ld	s6,0(sp)
    80000e46:	6121                	addi	sp,sp,64
    80000e48:	8082                	ret
            panic("kalloc");
    80000e4a:	00007517          	auipc	a0,0x7
    80000e4e:	32e50513          	addi	a0,a0,814 # 80008178 <etext+0x178>
    80000e52:	00005097          	auipc	ra,0x5
    80000e56:	fea080e7          	jalr	-22(ra) # 80005e3c <panic>

0000000080000e5a <procinit>:

// initialize the proc table.
void procinit(void)
{
    80000e5a:	7139                	addi	sp,sp,-64
    80000e5c:	fc06                	sd	ra,56(sp)
    80000e5e:	f822                	sd	s0,48(sp)
    80000e60:	f426                	sd	s1,40(sp)
    80000e62:	f04a                	sd	s2,32(sp)
    80000e64:	ec4e                	sd	s3,24(sp)
    80000e66:	e852                	sd	s4,16(sp)
    80000e68:	e456                	sd	s5,8(sp)
    80000e6a:	e05a                	sd	s6,0(sp)
    80000e6c:	0080                	addi	s0,sp,64
    struct proc *p;

    initlock(&pid_lock, "nextpid");
    80000e6e:	00007597          	auipc	a1,0x7
    80000e72:	31258593          	addi	a1,a1,786 # 80008180 <etext+0x180>
    80000e76:	00008517          	auipc	a0,0x8
    80000e7a:	afa50513          	addi	a0,a0,-1286 # 80008970 <pid_lock>
    80000e7e:	00005097          	auipc	ra,0x5
    80000e82:	466080e7          	jalr	1126(ra) # 800062e4 <initlock>
    initlock(&wait_lock, "wait_lock");
    80000e86:	00007597          	auipc	a1,0x7
    80000e8a:	30258593          	addi	a1,a1,770 # 80008188 <etext+0x188>
    80000e8e:	00008517          	auipc	a0,0x8
    80000e92:	afa50513          	addi	a0,a0,-1286 # 80008988 <wait_lock>
    80000e96:	00005097          	auipc	ra,0x5
    80000e9a:	44e080e7          	jalr	1102(ra) # 800062e4 <initlock>
    for (p = proc; p < &proc[NPROC]; p++) {
    80000e9e:	00008497          	auipc	s1,0x8
    80000ea2:	f0248493          	addi	s1,s1,-254 # 80008da0 <proc>
        initlock(&p->lock, "proc");
    80000ea6:	00007b17          	auipc	s6,0x7
    80000eaa:	2f2b0b13          	addi	s6,s6,754 # 80008198 <etext+0x198>
        p->state = UNUSED;
        p->kstack = KSTACK((int)(p - proc));
    80000eae:	8aa6                	mv	s5,s1
    80000eb0:	00007a17          	auipc	s4,0x7
    80000eb4:	150a0a13          	addi	s4,s4,336 # 80008000 <etext>
    80000eb8:	01000937          	lui	s2,0x1000
    80000ebc:	197d                	addi	s2,s2,-1 # ffffff <_entry-0x7f000001>
    80000ebe:	093a                	slli	s2,s2,0xe
    for (p = proc; p < &proc[NPROC]; p++) {
    80000ec0:	0000e997          	auipc	s3,0xe
    80000ec4:	ae098993          	addi	s3,s3,-1312 # 8000e9a0 <tickslock>
        initlock(&p->lock, "proc");
    80000ec8:	85da                	mv	a1,s6
    80000eca:	8526                	mv	a0,s1
    80000ecc:	00005097          	auipc	ra,0x5
    80000ed0:	418080e7          	jalr	1048(ra) # 800062e4 <initlock>
        p->state = UNUSED;
    80000ed4:	0004ac23          	sw	zero,24(s1)
        p->kstack = KSTACK((int)(p - proc));
    80000ed8:	415487b3          	sub	a5,s1,s5
    80000edc:	8791                	srai	a5,a5,0x4
    80000ede:	000a3703          	ld	a4,0(s4)
    80000ee2:	02e787b3          	mul	a5,a5,a4
    80000ee6:	00d7979b          	slliw	a5,a5,0xd
    80000eea:	40f907b3          	sub	a5,s2,a5
    80000eee:	e0bc                	sd	a5,64(s1)
    for (p = proc; p < &proc[NPROC]; p++) {
    80000ef0:	17048493          	addi	s1,s1,368
    80000ef4:	fd349ae3          	bne	s1,s3,80000ec8 <procinit+0x6e>
    }
}
    80000ef8:	70e2                	ld	ra,56(sp)
    80000efa:	7442                	ld	s0,48(sp)
    80000efc:	74a2                	ld	s1,40(sp)
    80000efe:	7902                	ld	s2,32(sp)
    80000f00:	69e2                	ld	s3,24(sp)
    80000f02:	6a42                	ld	s4,16(sp)
    80000f04:	6aa2                	ld	s5,8(sp)
    80000f06:	6b02                	ld	s6,0(sp)
    80000f08:	6121                	addi	sp,sp,64
    80000f0a:	8082                	ret

0000000080000f0c <cpuid>:

// Must be called with interrupts disabled,
// to prevent race with process being moved
// to a different CPU.
int cpuid()
{
    80000f0c:	1141                	addi	sp,sp,-16
    80000f0e:	e422                	sd	s0,8(sp)
    80000f10:	0800                	addi	s0,sp,16
    asm volatile("mv %0, tp" : "=r"(x));
    80000f12:	8512                	mv	a0,tp
    int id = r_tp();
    return id;
}
    80000f14:	2501                	sext.w	a0,a0
    80000f16:	6422                	ld	s0,8(sp)
    80000f18:	0141                	addi	sp,sp,16
    80000f1a:	8082                	ret

0000000080000f1c <mycpu>:

// Return this CPU's cpu struct.
// Interrupts must be disabled.
struct cpu *mycpu(void)
{
    80000f1c:	1141                	addi	sp,sp,-16
    80000f1e:	e422                	sd	s0,8(sp)
    80000f20:	0800                	addi	s0,sp,16
    80000f22:	8792                	mv	a5,tp
    int id = cpuid();
    struct cpu *c = &cpus[id];
    80000f24:	2781                	sext.w	a5,a5
    80000f26:	079e                	slli	a5,a5,0x7
    return c;
}
    80000f28:	00008517          	auipc	a0,0x8
    80000f2c:	a7850513          	addi	a0,a0,-1416 # 800089a0 <cpus>
    80000f30:	953e                	add	a0,a0,a5
    80000f32:	6422                	ld	s0,8(sp)
    80000f34:	0141                	addi	sp,sp,16
    80000f36:	8082                	ret

0000000080000f38 <myproc>:

// Return the current struct proc *, or zero if none.
struct proc *myproc(void)
{
    80000f38:	1101                	addi	sp,sp,-32
    80000f3a:	ec06                	sd	ra,24(sp)
    80000f3c:	e822                	sd	s0,16(sp)
    80000f3e:	e426                	sd	s1,8(sp)
    80000f40:	1000                	addi	s0,sp,32
    push_off();
    80000f42:	00005097          	auipc	ra,0x5
    80000f46:	3e6080e7          	jalr	998(ra) # 80006328 <push_off>
    80000f4a:	8792                	mv	a5,tp
    struct cpu *c = mycpu();
    struct proc *p = c->proc;
    80000f4c:	2781                	sext.w	a5,a5
    80000f4e:	079e                	slli	a5,a5,0x7
    80000f50:	00008717          	auipc	a4,0x8
    80000f54:	a2070713          	addi	a4,a4,-1504 # 80008970 <pid_lock>
    80000f58:	97ba                	add	a5,a5,a4
    80000f5a:	7b84                	ld	s1,48(a5)
    pop_off();
    80000f5c:	00005097          	auipc	ra,0x5
    80000f60:	46c080e7          	jalr	1132(ra) # 800063c8 <pop_off>
    return p;
}
    80000f64:	8526                	mv	a0,s1
    80000f66:	60e2                	ld	ra,24(sp)
    80000f68:	6442                	ld	s0,16(sp)
    80000f6a:	64a2                	ld	s1,8(sp)
    80000f6c:	6105                	addi	sp,sp,32
    80000f6e:	8082                	ret

0000000080000f70 <forkret>:
}

// A fork child's very first scheduling by scheduler()
// will swtch to forkret.
void forkret(void)
{
    80000f70:	1141                	addi	sp,sp,-16
    80000f72:	e406                	sd	ra,8(sp)
    80000f74:	e022                	sd	s0,0(sp)
    80000f76:	0800                	addi	s0,sp,16
    static int first = 1;

    // Still holding p->lock from scheduler.
    release(&myproc()->lock);
    80000f78:	00000097          	auipc	ra,0x0
    80000f7c:	fc0080e7          	jalr	-64(ra) # 80000f38 <myproc>
    80000f80:	00005097          	auipc	ra,0x5
    80000f84:	4a8080e7          	jalr	1192(ra) # 80006428 <release>

    if (first) {
    80000f88:	00008797          	auipc	a5,0x8
    80000f8c:	9287a783          	lw	a5,-1752(a5) # 800088b0 <first.1>
    80000f90:	eb89                	bnez	a5,80000fa2 <forkret+0x32>
        // be run from main().
        first = 0;
        fsinit(ROOTDEV);
    }

    usertrapret();
    80000f92:	00001097          	auipc	ra,0x1
    80000f96:	d18080e7          	jalr	-744(ra) # 80001caa <usertrapret>
}
    80000f9a:	60a2                	ld	ra,8(sp)
    80000f9c:	6402                	ld	s0,0(sp)
    80000f9e:	0141                	addi	sp,sp,16
    80000fa0:	8082                	ret
        first = 0;
    80000fa2:	00008797          	auipc	a5,0x8
    80000fa6:	9007a723          	sw	zero,-1778(a5) # 800088b0 <first.1>
        fsinit(ROOTDEV);
    80000faa:	4505                	li	a0,1
    80000fac:	00002097          	auipc	ra,0x2
    80000fb0:	b36080e7          	jalr	-1226(ra) # 80002ae2 <fsinit>
    80000fb4:	bff9                	j	80000f92 <forkret+0x22>

0000000080000fb6 <allocpid>:
{
    80000fb6:	1101                	addi	sp,sp,-32
    80000fb8:	ec06                	sd	ra,24(sp)
    80000fba:	e822                	sd	s0,16(sp)
    80000fbc:	e426                	sd	s1,8(sp)
    80000fbe:	e04a                	sd	s2,0(sp)
    80000fc0:	1000                	addi	s0,sp,32
    acquire(&pid_lock);
    80000fc2:	00008917          	auipc	s2,0x8
    80000fc6:	9ae90913          	addi	s2,s2,-1618 # 80008970 <pid_lock>
    80000fca:	854a                	mv	a0,s2
    80000fcc:	00005097          	auipc	ra,0x5
    80000fd0:	3a8080e7          	jalr	936(ra) # 80006374 <acquire>
    pid = nextpid;
    80000fd4:	00008797          	auipc	a5,0x8
    80000fd8:	8e078793          	addi	a5,a5,-1824 # 800088b4 <nextpid>
    80000fdc:	4384                	lw	s1,0(a5)
    nextpid = nextpid + 1;
    80000fde:	0014871b          	addiw	a4,s1,1
    80000fe2:	c398                	sw	a4,0(a5)
    release(&pid_lock);
    80000fe4:	854a                	mv	a0,s2
    80000fe6:	00005097          	auipc	ra,0x5
    80000fea:	442080e7          	jalr	1090(ra) # 80006428 <release>
}
    80000fee:	8526                	mv	a0,s1
    80000ff0:	60e2                	ld	ra,24(sp)
    80000ff2:	6442                	ld	s0,16(sp)
    80000ff4:	64a2                	ld	s1,8(sp)
    80000ff6:	6902                	ld	s2,0(sp)
    80000ff8:	6105                	addi	sp,sp,32
    80000ffa:	8082                	ret

0000000080000ffc <proc_pagetable>:
{
    80000ffc:	1101                	addi	sp,sp,-32
    80000ffe:	ec06                	sd	ra,24(sp)
    80001000:	e822                	sd	s0,16(sp)
    80001002:	e426                	sd	s1,8(sp)
    80001004:	e04a                	sd	s2,0(sp)
    80001006:	1000                	addi	s0,sp,32
    80001008:	892a                	mv	s2,a0
    pagetable = uvmcreate();
    8000100a:	fffff097          	auipc	ra,0xfffff
    8000100e:	7c6080e7          	jalr	1990(ra) # 800007d0 <uvmcreate>
    80001012:	84aa                	mv	s1,a0
    if (pagetable == 0)
    80001014:	cd39                	beqz	a0,80001072 <proc_pagetable+0x76>
    if (mappages(pagetable, TRAMPOLINE, PGSIZE, (uint64)trampoline, PTE_R | PTE_X) < 0) {
    80001016:	4729                	li	a4,10
    80001018:	00006697          	auipc	a3,0x6
    8000101c:	fe868693          	addi	a3,a3,-24 # 80007000 <_trampoline>
    80001020:	6605                	lui	a2,0x1
    80001022:	040005b7          	lui	a1,0x4000
    80001026:	15fd                	addi	a1,a1,-1 # 3ffffff <_entry-0x7c000001>
    80001028:	05b2                	slli	a1,a1,0xc
    8000102a:	fffff097          	auipc	ra,0xfffff
    8000102e:	51c080e7          	jalr	1308(ra) # 80000546 <mappages>
    80001032:	04054763          	bltz	a0,80001080 <proc_pagetable+0x84>
    if (mappages(pagetable, TRAPFRAME, PGSIZE, (uint64)(p->trapframe), PTE_R | PTE_W) < 0) {
    80001036:	4719                	li	a4,6
    80001038:	05893683          	ld	a3,88(s2)
    8000103c:	6605                	lui	a2,0x1
    8000103e:	020005b7          	lui	a1,0x2000
    80001042:	15fd                	addi	a1,a1,-1 # 1ffffff <_entry-0x7e000001>
    80001044:	05b6                	slli	a1,a1,0xd
    80001046:	8526                	mv	a0,s1
    80001048:	fffff097          	auipc	ra,0xfffff
    8000104c:	4fe080e7          	jalr	1278(ra) # 80000546 <mappages>
    80001050:	04054063          	bltz	a0,80001090 <proc_pagetable+0x94>
    if (mappages(pagetable, USYSCALL, PGSIZE, (uint64)(p->usys), PTE_R | PTE_U) < 0) {
    80001054:	4749                	li	a4,18
    80001056:	16893683          	ld	a3,360(s2)
    8000105a:	6605                	lui	a2,0x1
    8000105c:	040005b7          	lui	a1,0x4000
    80001060:	15f5                	addi	a1,a1,-3 # 3fffffd <_entry-0x7c000003>
    80001062:	05b2                	slli	a1,a1,0xc
    80001064:	8526                	mv	a0,s1
    80001066:	fffff097          	auipc	ra,0xfffff
    8000106a:	4e0080e7          	jalr	1248(ra) # 80000546 <mappages>
    8000106e:	04054463          	bltz	a0,800010b6 <proc_pagetable+0xba>
}
    80001072:	8526                	mv	a0,s1
    80001074:	60e2                	ld	ra,24(sp)
    80001076:	6442                	ld	s0,16(sp)
    80001078:	64a2                	ld	s1,8(sp)
    8000107a:	6902                	ld	s2,0(sp)
    8000107c:	6105                	addi	sp,sp,32
    8000107e:	8082                	ret
        uvmfree(pagetable, 0);
    80001080:	4581                	li	a1,0
    80001082:	8526                	mv	a0,s1
    80001084:	00000097          	auipc	ra,0x0
    80001088:	952080e7          	jalr	-1710(ra) # 800009d6 <uvmfree>
        return 0;
    8000108c:	4481                	li	s1,0
    8000108e:	b7d5                	j	80001072 <proc_pagetable+0x76>
        uvmunmap(pagetable, TRAMPOLINE, 1, 0);
    80001090:	4681                	li	a3,0
    80001092:	4605                	li	a2,1
    80001094:	040005b7          	lui	a1,0x4000
    80001098:	15fd                	addi	a1,a1,-1 # 3ffffff <_entry-0x7c000001>
    8000109a:	05b2                	slli	a1,a1,0xc
    8000109c:	8526                	mv	a0,s1
    8000109e:	fffff097          	auipc	ra,0xfffff
    800010a2:	66e080e7          	jalr	1646(ra) # 8000070c <uvmunmap>
        uvmfree(pagetable, 0);
    800010a6:	4581                	li	a1,0
    800010a8:	8526                	mv	a0,s1
    800010aa:	00000097          	auipc	ra,0x0
    800010ae:	92c080e7          	jalr	-1748(ra) # 800009d6 <uvmfree>
        return 0;
    800010b2:	4481                	li	s1,0
    800010b4:	bf7d                	j	80001072 <proc_pagetable+0x76>
        uvmunmap(pagetable, TRAMPOLINE, 1, 0);
    800010b6:	4681                	li	a3,0
    800010b8:	4605                	li	a2,1
    800010ba:	040005b7          	lui	a1,0x4000
    800010be:	15fd                	addi	a1,a1,-1 # 3ffffff <_entry-0x7c000001>
    800010c0:	05b2                	slli	a1,a1,0xc
    800010c2:	8526                	mv	a0,s1
    800010c4:	fffff097          	auipc	ra,0xfffff
    800010c8:	648080e7          	jalr	1608(ra) # 8000070c <uvmunmap>
        uvmunmap(pagetable, TRAPFRAME, 1, 0);
    800010cc:	4681                	li	a3,0
    800010ce:	4605                	li	a2,1
    800010d0:	020005b7          	lui	a1,0x2000
    800010d4:	15fd                	addi	a1,a1,-1 # 1ffffff <_entry-0x7e000001>
    800010d6:	05b6                	slli	a1,a1,0xd
    800010d8:	8526                	mv	a0,s1
    800010da:	fffff097          	auipc	ra,0xfffff
    800010de:	632080e7          	jalr	1586(ra) # 8000070c <uvmunmap>
        uvmfree(pagetable, 0);
    800010e2:	4581                	li	a1,0
    800010e4:	8526                	mv	a0,s1
    800010e6:	00000097          	auipc	ra,0x0
    800010ea:	8f0080e7          	jalr	-1808(ra) # 800009d6 <uvmfree>
        return 0;
    800010ee:	4481                	li	s1,0
    800010f0:	b749                	j	80001072 <proc_pagetable+0x76>

00000000800010f2 <proc_freepagetable>:
{
    800010f2:	7179                	addi	sp,sp,-48
    800010f4:	f406                	sd	ra,40(sp)
    800010f6:	f022                	sd	s0,32(sp)
    800010f8:	ec26                	sd	s1,24(sp)
    800010fa:	e84a                	sd	s2,16(sp)
    800010fc:	e44e                	sd	s3,8(sp)
    800010fe:	1800                	addi	s0,sp,48
    80001100:	84aa                	mv	s1,a0
    80001102:	89ae                	mv	s3,a1
    uvmunmap(pagetable, TRAMPOLINE, 1, 0);
    80001104:	4681                	li	a3,0
    80001106:	4605                	li	a2,1
    80001108:	04000937          	lui	s2,0x4000
    8000110c:	fff90593          	addi	a1,s2,-1 # 3ffffff <_entry-0x7c000001>
    80001110:	05b2                	slli	a1,a1,0xc
    80001112:	fffff097          	auipc	ra,0xfffff
    80001116:	5fa080e7          	jalr	1530(ra) # 8000070c <uvmunmap>
    uvmunmap(pagetable, TRAPFRAME, 1, 0);
    8000111a:	4681                	li	a3,0
    8000111c:	4605                	li	a2,1
    8000111e:	020005b7          	lui	a1,0x2000
    80001122:	15fd                	addi	a1,a1,-1 # 1ffffff <_entry-0x7e000001>
    80001124:	05b6                	slli	a1,a1,0xd
    80001126:	8526                	mv	a0,s1
    80001128:	fffff097          	auipc	ra,0xfffff
    8000112c:	5e4080e7          	jalr	1508(ra) # 8000070c <uvmunmap>
    uvmunmap(pagetable, USYSCALL, 1, 0);
    80001130:	4681                	li	a3,0
    80001132:	4605                	li	a2,1
    80001134:	1975                	addi	s2,s2,-3
    80001136:	00c91593          	slli	a1,s2,0xc
    8000113a:	8526                	mv	a0,s1
    8000113c:	fffff097          	auipc	ra,0xfffff
    80001140:	5d0080e7          	jalr	1488(ra) # 8000070c <uvmunmap>
    uvmfree(pagetable, sz);
    80001144:	85ce                	mv	a1,s3
    80001146:	8526                	mv	a0,s1
    80001148:	00000097          	auipc	ra,0x0
    8000114c:	88e080e7          	jalr	-1906(ra) # 800009d6 <uvmfree>
}
    80001150:	70a2                	ld	ra,40(sp)
    80001152:	7402                	ld	s0,32(sp)
    80001154:	64e2                	ld	s1,24(sp)
    80001156:	6942                	ld	s2,16(sp)
    80001158:	69a2                	ld	s3,8(sp)
    8000115a:	6145                	addi	sp,sp,48
    8000115c:	8082                	ret

000000008000115e <freeproc>:
{
    8000115e:	1101                	addi	sp,sp,-32
    80001160:	ec06                	sd	ra,24(sp)
    80001162:	e822                	sd	s0,16(sp)
    80001164:	e426                	sd	s1,8(sp)
    80001166:	1000                	addi	s0,sp,32
    80001168:	84aa                	mv	s1,a0
    if (p->usys) {
    8000116a:	16853503          	ld	a0,360(a0)
    8000116e:	c509                	beqz	a0,80001178 <freeproc+0x1a>
        kfree((void *)p->usys);
    80001170:	fffff097          	auipc	ra,0xfffff
    80001174:	eac080e7          	jalr	-340(ra) # 8000001c <kfree>
    p->usys = 0;
    80001178:	1604b423          	sd	zero,360(s1)
    if (p->trapframe)
    8000117c:	6ca8                	ld	a0,88(s1)
    8000117e:	c509                	beqz	a0,80001188 <freeproc+0x2a>
        kfree((void *)p->trapframe);
    80001180:	fffff097          	auipc	ra,0xfffff
    80001184:	e9c080e7          	jalr	-356(ra) # 8000001c <kfree>
    p->trapframe = 0;
    80001188:	0404bc23          	sd	zero,88(s1)
    if (p->pagetable)
    8000118c:	68a8                	ld	a0,80(s1)
    8000118e:	c511                	beqz	a0,8000119a <freeproc+0x3c>
        proc_freepagetable(p->pagetable, p->sz);
    80001190:	64ac                	ld	a1,72(s1)
    80001192:	00000097          	auipc	ra,0x0
    80001196:	f60080e7          	jalr	-160(ra) # 800010f2 <proc_freepagetable>
    p->pagetable = 0;
    8000119a:	0404b823          	sd	zero,80(s1)
    p->sz = 0;
    8000119e:	0404b423          	sd	zero,72(s1)
    p->pid = 0;
    800011a2:	0204a823          	sw	zero,48(s1)
    p->parent = 0;
    800011a6:	0204bc23          	sd	zero,56(s1)
    p->name[0] = 0;
    800011aa:	14048c23          	sb	zero,344(s1)
    p->chan = 0;
    800011ae:	0204b023          	sd	zero,32(s1)
    p->killed = 0;
    800011b2:	0204a423          	sw	zero,40(s1)
    p->xstate = 0;
    800011b6:	0204a623          	sw	zero,44(s1)
    p->state = UNUSED;
    800011ba:	0004ac23          	sw	zero,24(s1)
}
    800011be:	60e2                	ld	ra,24(sp)
    800011c0:	6442                	ld	s0,16(sp)
    800011c2:	64a2                	ld	s1,8(sp)
    800011c4:	6105                	addi	sp,sp,32
    800011c6:	8082                	ret

00000000800011c8 <allocproc>:
{
    800011c8:	1101                	addi	sp,sp,-32
    800011ca:	ec06                	sd	ra,24(sp)
    800011cc:	e822                	sd	s0,16(sp)
    800011ce:	e426                	sd	s1,8(sp)
    800011d0:	e04a                	sd	s2,0(sp)
    800011d2:	1000                	addi	s0,sp,32
    for (p = proc; p < &proc[NPROC]; p++) {
    800011d4:	00008497          	auipc	s1,0x8
    800011d8:	bcc48493          	addi	s1,s1,-1076 # 80008da0 <proc>
    800011dc:	0000d917          	auipc	s2,0xd
    800011e0:	7c490913          	addi	s2,s2,1988 # 8000e9a0 <tickslock>
        acquire(&p->lock);
    800011e4:	8526                	mv	a0,s1
    800011e6:	00005097          	auipc	ra,0x5
    800011ea:	18e080e7          	jalr	398(ra) # 80006374 <acquire>
        if (p->state == UNUSED) {
    800011ee:	4c9c                	lw	a5,24(s1)
    800011f0:	cf81                	beqz	a5,80001208 <allocproc+0x40>
            release(&p->lock);
    800011f2:	8526                	mv	a0,s1
    800011f4:	00005097          	auipc	ra,0x5
    800011f8:	234080e7          	jalr	564(ra) # 80006428 <release>
    for (p = proc; p < &proc[NPROC]; p++) {
    800011fc:	17048493          	addi	s1,s1,368
    80001200:	ff2492e3          	bne	s1,s2,800011e4 <allocproc+0x1c>
    return 0;
    80001204:	4481                	li	s1,0
    80001206:	a885                	j	80001276 <allocproc+0xae>
    p->pid = allocpid();
    80001208:	00000097          	auipc	ra,0x0
    8000120c:	dae080e7          	jalr	-594(ra) # 80000fb6 <allocpid>
    80001210:	d888                	sw	a0,48(s1)
    p->state = USED;
    80001212:	4785                	li	a5,1
    80001214:	cc9c                	sw	a5,24(s1)
    if ((p->trapframe = (struct trapframe *)kalloc()) == 0) {
    80001216:	fffff097          	auipc	ra,0xfffff
    8000121a:	f04080e7          	jalr	-252(ra) # 8000011a <kalloc>
    8000121e:	892a                	mv	s2,a0
    80001220:	eca8                	sd	a0,88(s1)
    80001222:	c12d                	beqz	a0,80001284 <allocproc+0xbc>
    if ((p->usys = (struct usyscall *)kalloc()) == 0) {
    80001224:	fffff097          	auipc	ra,0xfffff
    80001228:	ef6080e7          	jalr	-266(ra) # 8000011a <kalloc>
    8000122c:	892a                	mv	s2,a0
    8000122e:	16a4b423          	sd	a0,360(s1)
    80001232:	c52d                	beqz	a0,8000129c <allocproc+0xd4>
    memmove(p->usys, &p->pid, sizeof(int));
    80001234:	4611                	li	a2,4
    80001236:	03048593          	addi	a1,s1,48
    8000123a:	fffff097          	auipc	ra,0xfffff
    8000123e:	f9c080e7          	jalr	-100(ra) # 800001d6 <memmove>
    p->pagetable = proc_pagetable(p);
    80001242:	8526                	mv	a0,s1
    80001244:	00000097          	auipc	ra,0x0
    80001248:	db8080e7          	jalr	-584(ra) # 80000ffc <proc_pagetable>
    8000124c:	892a                	mv	s2,a0
    8000124e:	e8a8                	sd	a0,80(s1)
    if (p->pagetable == 0) {
    80001250:	c135                	beqz	a0,800012b4 <allocproc+0xec>
    memset(&p->context, 0, sizeof(p->context));
    80001252:	07000613          	li	a2,112
    80001256:	4581                	li	a1,0
    80001258:	06048513          	addi	a0,s1,96
    8000125c:	fffff097          	auipc	ra,0xfffff
    80001260:	f1e080e7          	jalr	-226(ra) # 8000017a <memset>
    p->context.ra = (uint64)forkret;
    80001264:	00000797          	auipc	a5,0x0
    80001268:	d0c78793          	addi	a5,a5,-756 # 80000f70 <forkret>
    8000126c:	f0bc                	sd	a5,96(s1)
    p->context.sp = p->kstack + PGSIZE;
    8000126e:	60bc                	ld	a5,64(s1)
    80001270:	6705                	lui	a4,0x1
    80001272:	97ba                	add	a5,a5,a4
    80001274:	f4bc                	sd	a5,104(s1)
}
    80001276:	8526                	mv	a0,s1
    80001278:	60e2                	ld	ra,24(sp)
    8000127a:	6442                	ld	s0,16(sp)
    8000127c:	64a2                	ld	s1,8(sp)
    8000127e:	6902                	ld	s2,0(sp)
    80001280:	6105                	addi	sp,sp,32
    80001282:	8082                	ret
        freeproc(p);
    80001284:	8526                	mv	a0,s1
    80001286:	00000097          	auipc	ra,0x0
    8000128a:	ed8080e7          	jalr	-296(ra) # 8000115e <freeproc>
        release(&p->lock);
    8000128e:	8526                	mv	a0,s1
    80001290:	00005097          	auipc	ra,0x5
    80001294:	198080e7          	jalr	408(ra) # 80006428 <release>
        return 0;
    80001298:	84ca                	mv	s1,s2
    8000129a:	bff1                	j	80001276 <allocproc+0xae>
        freeproc(p);
    8000129c:	8526                	mv	a0,s1
    8000129e:	00000097          	auipc	ra,0x0
    800012a2:	ec0080e7          	jalr	-320(ra) # 8000115e <freeproc>
        release(&p->lock);
    800012a6:	8526                	mv	a0,s1
    800012a8:	00005097          	auipc	ra,0x5
    800012ac:	180080e7          	jalr	384(ra) # 80006428 <release>
        return 0;
    800012b0:	84ca                	mv	s1,s2
    800012b2:	b7d1                	j	80001276 <allocproc+0xae>
        freeproc(p);
    800012b4:	8526                	mv	a0,s1
    800012b6:	00000097          	auipc	ra,0x0
    800012ba:	ea8080e7          	jalr	-344(ra) # 8000115e <freeproc>
        release(&p->lock);
    800012be:	8526                	mv	a0,s1
    800012c0:	00005097          	auipc	ra,0x5
    800012c4:	168080e7          	jalr	360(ra) # 80006428 <release>
        return 0;
    800012c8:	84ca                	mv	s1,s2
    800012ca:	b775                	j	80001276 <allocproc+0xae>

00000000800012cc <userinit>:
{
    800012cc:	1101                	addi	sp,sp,-32
    800012ce:	ec06                	sd	ra,24(sp)
    800012d0:	e822                	sd	s0,16(sp)
    800012d2:	e426                	sd	s1,8(sp)
    800012d4:	1000                	addi	s0,sp,32
    p = allocproc();
    800012d6:	00000097          	auipc	ra,0x0
    800012da:	ef2080e7          	jalr	-270(ra) # 800011c8 <allocproc>
    800012de:	84aa                	mv	s1,a0
    initproc = p;
    800012e0:	00007797          	auipc	a5,0x7
    800012e4:	64a7b823          	sd	a0,1616(a5) # 80008930 <initproc>
    uvmfirst(p->pagetable, initcode, sizeof(initcode));
    800012e8:	03400613          	li	a2,52
    800012ec:	00007597          	auipc	a1,0x7
    800012f0:	5d458593          	addi	a1,a1,1492 # 800088c0 <initcode>
    800012f4:	6928                	ld	a0,80(a0)
    800012f6:	fffff097          	auipc	ra,0xfffff
    800012fa:	508080e7          	jalr	1288(ra) # 800007fe <uvmfirst>
    p->sz = PGSIZE;
    800012fe:	6785                	lui	a5,0x1
    80001300:	e4bc                	sd	a5,72(s1)
    p->trapframe->epc = 0;     // user program counter
    80001302:	6cb8                	ld	a4,88(s1)
    80001304:	00073c23          	sd	zero,24(a4) # 1018 <_entry-0x7fffefe8>
    p->trapframe->sp = PGSIZE; // user stack pointer
    80001308:	6cb8                	ld	a4,88(s1)
    8000130a:	fb1c                	sd	a5,48(a4)
    safestrcpy(p->name, "initcode", sizeof(p->name));
    8000130c:	4641                	li	a2,16
    8000130e:	00007597          	auipc	a1,0x7
    80001312:	e9258593          	addi	a1,a1,-366 # 800081a0 <etext+0x1a0>
    80001316:	15848513          	addi	a0,s1,344
    8000131a:	fffff097          	auipc	ra,0xfffff
    8000131e:	faa080e7          	jalr	-86(ra) # 800002c4 <safestrcpy>
    p->cwd = namei("/");
    80001322:	00007517          	auipc	a0,0x7
    80001326:	e8e50513          	addi	a0,a0,-370 # 800081b0 <etext+0x1b0>
    8000132a:	00002097          	auipc	ra,0x2
    8000132e:	1e2080e7          	jalr	482(ra) # 8000350c <namei>
    80001332:	14a4b823          	sd	a0,336(s1)
    p->state = RUNNABLE;
    80001336:	478d                	li	a5,3
    80001338:	cc9c                	sw	a5,24(s1)
    release(&p->lock);
    8000133a:	8526                	mv	a0,s1
    8000133c:	00005097          	auipc	ra,0x5
    80001340:	0ec080e7          	jalr	236(ra) # 80006428 <release>
}
    80001344:	60e2                	ld	ra,24(sp)
    80001346:	6442                	ld	s0,16(sp)
    80001348:	64a2                	ld	s1,8(sp)
    8000134a:	6105                	addi	sp,sp,32
    8000134c:	8082                	ret

000000008000134e <growproc>:
{
    8000134e:	1101                	addi	sp,sp,-32
    80001350:	ec06                	sd	ra,24(sp)
    80001352:	e822                	sd	s0,16(sp)
    80001354:	e426                	sd	s1,8(sp)
    80001356:	e04a                	sd	s2,0(sp)
    80001358:	1000                	addi	s0,sp,32
    8000135a:	892a                	mv	s2,a0
    struct proc *p = myproc();
    8000135c:	00000097          	auipc	ra,0x0
    80001360:	bdc080e7          	jalr	-1060(ra) # 80000f38 <myproc>
    80001364:	84aa                	mv	s1,a0
    sz = p->sz;
    80001366:	652c                	ld	a1,72(a0)
    if (n > 0) {
    80001368:	01204c63          	bgtz	s2,80001380 <growproc+0x32>
    else if (n < 0) {
    8000136c:	02094663          	bltz	s2,80001398 <growproc+0x4a>
    p->sz = sz;
    80001370:	e4ac                	sd	a1,72(s1)
    return 0;
    80001372:	4501                	li	a0,0
}
    80001374:	60e2                	ld	ra,24(sp)
    80001376:	6442                	ld	s0,16(sp)
    80001378:	64a2                	ld	s1,8(sp)
    8000137a:	6902                	ld	s2,0(sp)
    8000137c:	6105                	addi	sp,sp,32
    8000137e:	8082                	ret
        if ((sz = uvmalloc(p->pagetable, sz, sz + n, PTE_W)) == 0) {
    80001380:	4691                	li	a3,4
    80001382:	00b90633          	add	a2,s2,a1
    80001386:	6928                	ld	a0,80(a0)
    80001388:	fffff097          	auipc	ra,0xfffff
    8000138c:	530080e7          	jalr	1328(ra) # 800008b8 <uvmalloc>
    80001390:	85aa                	mv	a1,a0
    80001392:	fd79                	bnez	a0,80001370 <growproc+0x22>
            return -1;
    80001394:	557d                	li	a0,-1
    80001396:	bff9                	j	80001374 <growproc+0x26>
        sz = uvmdealloc(p->pagetable, sz, sz + n);
    80001398:	00b90633          	add	a2,s2,a1
    8000139c:	6928                	ld	a0,80(a0)
    8000139e:	fffff097          	auipc	ra,0xfffff
    800013a2:	4d2080e7          	jalr	1234(ra) # 80000870 <uvmdealloc>
    800013a6:	85aa                	mv	a1,a0
    800013a8:	b7e1                	j	80001370 <growproc+0x22>

00000000800013aa <fork>:
{
    800013aa:	7139                	addi	sp,sp,-64
    800013ac:	fc06                	sd	ra,56(sp)
    800013ae:	f822                	sd	s0,48(sp)
    800013b0:	f426                	sd	s1,40(sp)
    800013b2:	f04a                	sd	s2,32(sp)
    800013b4:	ec4e                	sd	s3,24(sp)
    800013b6:	e852                	sd	s4,16(sp)
    800013b8:	e456                	sd	s5,8(sp)
    800013ba:	0080                	addi	s0,sp,64
    struct proc *p = myproc();
    800013bc:	00000097          	auipc	ra,0x0
    800013c0:	b7c080e7          	jalr	-1156(ra) # 80000f38 <myproc>
    800013c4:	8aaa                	mv	s5,a0
    if ((np = allocproc()) == 0) {
    800013c6:	00000097          	auipc	ra,0x0
    800013ca:	e02080e7          	jalr	-510(ra) # 800011c8 <allocproc>
    800013ce:	10050c63          	beqz	a0,800014e6 <fork+0x13c>
    800013d2:	8a2a                	mv	s4,a0
    if (uvmcopy(p->pagetable, np->pagetable, p->sz) < 0) {
    800013d4:	048ab603          	ld	a2,72(s5)
    800013d8:	692c                	ld	a1,80(a0)
    800013da:	050ab503          	ld	a0,80(s5)
    800013de:	fffff097          	auipc	ra,0xfffff
    800013e2:	632080e7          	jalr	1586(ra) # 80000a10 <uvmcopy>
    800013e6:	04054863          	bltz	a0,80001436 <fork+0x8c>
    np->sz = p->sz;
    800013ea:	048ab783          	ld	a5,72(s5)
    800013ee:	04fa3423          	sd	a5,72(s4)
    *(np->trapframe) = *(p->trapframe);
    800013f2:	058ab683          	ld	a3,88(s5)
    800013f6:	87b6                	mv	a5,a3
    800013f8:	058a3703          	ld	a4,88(s4)
    800013fc:	12068693          	addi	a3,a3,288
    80001400:	0007b803          	ld	a6,0(a5) # 1000 <_entry-0x7ffff000>
    80001404:	6788                	ld	a0,8(a5)
    80001406:	6b8c                	ld	a1,16(a5)
    80001408:	6f90                	ld	a2,24(a5)
    8000140a:	01073023          	sd	a6,0(a4)
    8000140e:	e708                	sd	a0,8(a4)
    80001410:	eb0c                	sd	a1,16(a4)
    80001412:	ef10                	sd	a2,24(a4)
    80001414:	02078793          	addi	a5,a5,32
    80001418:	02070713          	addi	a4,a4,32
    8000141c:	fed792e3          	bne	a5,a3,80001400 <fork+0x56>
    np->trapframe->a0 = 0;
    80001420:	058a3783          	ld	a5,88(s4)
    80001424:	0607b823          	sd	zero,112(a5)
    for (i = 0; i < NOFILE; i++)
    80001428:	0d0a8493          	addi	s1,s5,208
    8000142c:	0d0a0913          	addi	s2,s4,208
    80001430:	150a8993          	addi	s3,s5,336
    80001434:	a00d                	j	80001456 <fork+0xac>
        freeproc(np);
    80001436:	8552                	mv	a0,s4
    80001438:	00000097          	auipc	ra,0x0
    8000143c:	d26080e7          	jalr	-730(ra) # 8000115e <freeproc>
        release(&np->lock);
    80001440:	8552                	mv	a0,s4
    80001442:	00005097          	auipc	ra,0x5
    80001446:	fe6080e7          	jalr	-26(ra) # 80006428 <release>
        return -1;
    8000144a:	597d                	li	s2,-1
    8000144c:	a059                	j	800014d2 <fork+0x128>
    for (i = 0; i < NOFILE; i++)
    8000144e:	04a1                	addi	s1,s1,8
    80001450:	0921                	addi	s2,s2,8
    80001452:	01348b63          	beq	s1,s3,80001468 <fork+0xbe>
        if (p->ofile[i])
    80001456:	6088                	ld	a0,0(s1)
    80001458:	d97d                	beqz	a0,8000144e <fork+0xa4>
            np->ofile[i] = filedup(p->ofile[i]);
    8000145a:	00002097          	auipc	ra,0x2
    8000145e:	748080e7          	jalr	1864(ra) # 80003ba2 <filedup>
    80001462:	00a93023          	sd	a0,0(s2)
    80001466:	b7e5                	j	8000144e <fork+0xa4>
    np->cwd = idup(p->cwd);
    80001468:	150ab503          	ld	a0,336(s5)
    8000146c:	00002097          	auipc	ra,0x2
    80001470:	8b6080e7          	jalr	-1866(ra) # 80002d22 <idup>
    80001474:	14aa3823          	sd	a0,336(s4)
    safestrcpy(np->name, p->name, sizeof(p->name));
    80001478:	4641                	li	a2,16
    8000147a:	158a8593          	addi	a1,s5,344
    8000147e:	158a0513          	addi	a0,s4,344
    80001482:	fffff097          	auipc	ra,0xfffff
    80001486:	e42080e7          	jalr	-446(ra) # 800002c4 <safestrcpy>
    pid = np->pid;
    8000148a:	030a2903          	lw	s2,48(s4)
    release(&np->lock);
    8000148e:	8552                	mv	a0,s4
    80001490:	00005097          	auipc	ra,0x5
    80001494:	f98080e7          	jalr	-104(ra) # 80006428 <release>
    acquire(&wait_lock);
    80001498:	00007497          	auipc	s1,0x7
    8000149c:	4f048493          	addi	s1,s1,1264 # 80008988 <wait_lock>
    800014a0:	8526                	mv	a0,s1
    800014a2:	00005097          	auipc	ra,0x5
    800014a6:	ed2080e7          	jalr	-302(ra) # 80006374 <acquire>
    np->parent = p;
    800014aa:	035a3c23          	sd	s5,56(s4)
    release(&wait_lock);
    800014ae:	8526                	mv	a0,s1
    800014b0:	00005097          	auipc	ra,0x5
    800014b4:	f78080e7          	jalr	-136(ra) # 80006428 <release>
    acquire(&np->lock);
    800014b8:	8552                	mv	a0,s4
    800014ba:	00005097          	auipc	ra,0x5
    800014be:	eba080e7          	jalr	-326(ra) # 80006374 <acquire>
    np->state = RUNNABLE;
    800014c2:	478d                	li	a5,3
    800014c4:	00fa2c23          	sw	a5,24(s4)
    release(&np->lock);
    800014c8:	8552                	mv	a0,s4
    800014ca:	00005097          	auipc	ra,0x5
    800014ce:	f5e080e7          	jalr	-162(ra) # 80006428 <release>
}
    800014d2:	854a                	mv	a0,s2
    800014d4:	70e2                	ld	ra,56(sp)
    800014d6:	7442                	ld	s0,48(sp)
    800014d8:	74a2                	ld	s1,40(sp)
    800014da:	7902                	ld	s2,32(sp)
    800014dc:	69e2                	ld	s3,24(sp)
    800014de:	6a42                	ld	s4,16(sp)
    800014e0:	6aa2                	ld	s5,8(sp)
    800014e2:	6121                	addi	sp,sp,64
    800014e4:	8082                	ret
        return -1;
    800014e6:	597d                	li	s2,-1
    800014e8:	b7ed                	j	800014d2 <fork+0x128>

00000000800014ea <scheduler>:
{
    800014ea:	7139                	addi	sp,sp,-64
    800014ec:	fc06                	sd	ra,56(sp)
    800014ee:	f822                	sd	s0,48(sp)
    800014f0:	f426                	sd	s1,40(sp)
    800014f2:	f04a                	sd	s2,32(sp)
    800014f4:	ec4e                	sd	s3,24(sp)
    800014f6:	e852                	sd	s4,16(sp)
    800014f8:	e456                	sd	s5,8(sp)
    800014fa:	e05a                	sd	s6,0(sp)
    800014fc:	0080                	addi	s0,sp,64
    800014fe:	8792                	mv	a5,tp
    int id = r_tp();
    80001500:	2781                	sext.w	a5,a5
    c->proc = 0;
    80001502:	00779a93          	slli	s5,a5,0x7
    80001506:	00007717          	auipc	a4,0x7
    8000150a:	46a70713          	addi	a4,a4,1130 # 80008970 <pid_lock>
    8000150e:	9756                	add	a4,a4,s5
    80001510:	02073823          	sd	zero,48(a4)
                swtch(&c->context, &p->context);
    80001514:	00007717          	auipc	a4,0x7
    80001518:	49470713          	addi	a4,a4,1172 # 800089a8 <cpus+0x8>
    8000151c:	9aba                	add	s5,s5,a4
            if (p->state == RUNNABLE) {
    8000151e:	498d                	li	s3,3
                p->state = RUNNING;
    80001520:	4b11                	li	s6,4
                c->proc = p;
    80001522:	079e                	slli	a5,a5,0x7
    80001524:	00007a17          	auipc	s4,0x7
    80001528:	44ca0a13          	addi	s4,s4,1100 # 80008970 <pid_lock>
    8000152c:	9a3e                	add	s4,s4,a5
        for (p = proc; p < &proc[NPROC]; p++) {
    8000152e:	0000d917          	auipc	s2,0xd
    80001532:	47290913          	addi	s2,s2,1138 # 8000e9a0 <tickslock>
    asm volatile("csrr %0, sstatus" : "=r"(x));
    80001536:	100027f3          	csrr	a5,sstatus
    w_sstatus(r_sstatus() | SSTATUS_SIE);
    8000153a:	0027e793          	ori	a5,a5,2
    asm volatile("csrw sstatus, %0" : : "r"(x));
    8000153e:	10079073          	csrw	sstatus,a5
    80001542:	00008497          	auipc	s1,0x8
    80001546:	85e48493          	addi	s1,s1,-1954 # 80008da0 <proc>
    8000154a:	a811                	j	8000155e <scheduler+0x74>
            release(&p->lock);
    8000154c:	8526                	mv	a0,s1
    8000154e:	00005097          	auipc	ra,0x5
    80001552:	eda080e7          	jalr	-294(ra) # 80006428 <release>
        for (p = proc; p < &proc[NPROC]; p++) {
    80001556:	17048493          	addi	s1,s1,368
    8000155a:	fd248ee3          	beq	s1,s2,80001536 <scheduler+0x4c>
            acquire(&p->lock);
    8000155e:	8526                	mv	a0,s1
    80001560:	00005097          	auipc	ra,0x5
    80001564:	e14080e7          	jalr	-492(ra) # 80006374 <acquire>
            if (p->state == RUNNABLE) {
    80001568:	4c9c                	lw	a5,24(s1)
    8000156a:	ff3791e3          	bne	a5,s3,8000154c <scheduler+0x62>
                p->state = RUNNING;
    8000156e:	0164ac23          	sw	s6,24(s1)
                c->proc = p;
    80001572:	029a3823          	sd	s1,48(s4)
                swtch(&c->context, &p->context);
    80001576:	06048593          	addi	a1,s1,96
    8000157a:	8556                	mv	a0,s5
    8000157c:	00000097          	auipc	ra,0x0
    80001580:	684080e7          	jalr	1668(ra) # 80001c00 <swtch>
                c->proc = 0;
    80001584:	020a3823          	sd	zero,48(s4)
    80001588:	b7d1                	j	8000154c <scheduler+0x62>

000000008000158a <sched>:
{
    8000158a:	7179                	addi	sp,sp,-48
    8000158c:	f406                	sd	ra,40(sp)
    8000158e:	f022                	sd	s0,32(sp)
    80001590:	ec26                	sd	s1,24(sp)
    80001592:	e84a                	sd	s2,16(sp)
    80001594:	e44e                	sd	s3,8(sp)
    80001596:	1800                	addi	s0,sp,48
    struct proc *p = myproc();
    80001598:	00000097          	auipc	ra,0x0
    8000159c:	9a0080e7          	jalr	-1632(ra) # 80000f38 <myproc>
    800015a0:	84aa                	mv	s1,a0
    if (!holding(&p->lock))
    800015a2:	00005097          	auipc	ra,0x5
    800015a6:	d58080e7          	jalr	-680(ra) # 800062fa <holding>
    800015aa:	c93d                	beqz	a0,80001620 <sched+0x96>
    asm volatile("mv %0, tp" : "=r"(x));
    800015ac:	8792                	mv	a5,tp
    if (mycpu()->noff != 1)
    800015ae:	2781                	sext.w	a5,a5
    800015b0:	079e                	slli	a5,a5,0x7
    800015b2:	00007717          	auipc	a4,0x7
    800015b6:	3be70713          	addi	a4,a4,958 # 80008970 <pid_lock>
    800015ba:	97ba                	add	a5,a5,a4
    800015bc:	0a87a703          	lw	a4,168(a5)
    800015c0:	4785                	li	a5,1
    800015c2:	06f71763          	bne	a4,a5,80001630 <sched+0xa6>
    if (p->state == RUNNING)
    800015c6:	4c98                	lw	a4,24(s1)
    800015c8:	4791                	li	a5,4
    800015ca:	06f70b63          	beq	a4,a5,80001640 <sched+0xb6>
    asm volatile("csrr %0, sstatus" : "=r"(x));
    800015ce:	100027f3          	csrr	a5,sstatus
    return (x & SSTATUS_SIE) != 0;
    800015d2:	8b89                	andi	a5,a5,2
    if (intr_get())
    800015d4:	efb5                	bnez	a5,80001650 <sched+0xc6>
    asm volatile("mv %0, tp" : "=r"(x));
    800015d6:	8792                	mv	a5,tp
    intena = mycpu()->intena;
    800015d8:	00007917          	auipc	s2,0x7
    800015dc:	39890913          	addi	s2,s2,920 # 80008970 <pid_lock>
    800015e0:	2781                	sext.w	a5,a5
    800015e2:	079e                	slli	a5,a5,0x7
    800015e4:	97ca                	add	a5,a5,s2
    800015e6:	0ac7a983          	lw	s3,172(a5)
    800015ea:	8792                	mv	a5,tp
    swtch(&p->context, &mycpu()->context);
    800015ec:	2781                	sext.w	a5,a5
    800015ee:	079e                	slli	a5,a5,0x7
    800015f0:	00007597          	auipc	a1,0x7
    800015f4:	3b858593          	addi	a1,a1,952 # 800089a8 <cpus+0x8>
    800015f8:	95be                	add	a1,a1,a5
    800015fa:	06048513          	addi	a0,s1,96
    800015fe:	00000097          	auipc	ra,0x0
    80001602:	602080e7          	jalr	1538(ra) # 80001c00 <swtch>
    80001606:	8792                	mv	a5,tp
    mycpu()->intena = intena;
    80001608:	2781                	sext.w	a5,a5
    8000160a:	079e                	slli	a5,a5,0x7
    8000160c:	993e                	add	s2,s2,a5
    8000160e:	0b392623          	sw	s3,172(s2)
}
    80001612:	70a2                	ld	ra,40(sp)
    80001614:	7402                	ld	s0,32(sp)
    80001616:	64e2                	ld	s1,24(sp)
    80001618:	6942                	ld	s2,16(sp)
    8000161a:	69a2                	ld	s3,8(sp)
    8000161c:	6145                	addi	sp,sp,48
    8000161e:	8082                	ret
        panic("sched p->lock");
    80001620:	00007517          	auipc	a0,0x7
    80001624:	b9850513          	addi	a0,a0,-1128 # 800081b8 <etext+0x1b8>
    80001628:	00005097          	auipc	ra,0x5
    8000162c:	814080e7          	jalr	-2028(ra) # 80005e3c <panic>
        panic("sched locks");
    80001630:	00007517          	auipc	a0,0x7
    80001634:	b9850513          	addi	a0,a0,-1128 # 800081c8 <etext+0x1c8>
    80001638:	00005097          	auipc	ra,0x5
    8000163c:	804080e7          	jalr	-2044(ra) # 80005e3c <panic>
        panic("sched running");
    80001640:	00007517          	auipc	a0,0x7
    80001644:	b9850513          	addi	a0,a0,-1128 # 800081d8 <etext+0x1d8>
    80001648:	00004097          	auipc	ra,0x4
    8000164c:	7f4080e7          	jalr	2036(ra) # 80005e3c <panic>
        panic("sched interruptible");
    80001650:	00007517          	auipc	a0,0x7
    80001654:	b9850513          	addi	a0,a0,-1128 # 800081e8 <etext+0x1e8>
    80001658:	00004097          	auipc	ra,0x4
    8000165c:	7e4080e7          	jalr	2020(ra) # 80005e3c <panic>

0000000080001660 <yield>:
{
    80001660:	1101                	addi	sp,sp,-32
    80001662:	ec06                	sd	ra,24(sp)
    80001664:	e822                	sd	s0,16(sp)
    80001666:	e426                	sd	s1,8(sp)
    80001668:	1000                	addi	s0,sp,32
    struct proc *p = myproc();
    8000166a:	00000097          	auipc	ra,0x0
    8000166e:	8ce080e7          	jalr	-1842(ra) # 80000f38 <myproc>
    80001672:	84aa                	mv	s1,a0
    acquire(&p->lock);
    80001674:	00005097          	auipc	ra,0x5
    80001678:	d00080e7          	jalr	-768(ra) # 80006374 <acquire>
    p->state = RUNNABLE;
    8000167c:	478d                	li	a5,3
    8000167e:	cc9c                	sw	a5,24(s1)
    sched();
    80001680:	00000097          	auipc	ra,0x0
    80001684:	f0a080e7          	jalr	-246(ra) # 8000158a <sched>
    release(&p->lock);
    80001688:	8526                	mv	a0,s1
    8000168a:	00005097          	auipc	ra,0x5
    8000168e:	d9e080e7          	jalr	-610(ra) # 80006428 <release>
}
    80001692:	60e2                	ld	ra,24(sp)
    80001694:	6442                	ld	s0,16(sp)
    80001696:	64a2                	ld	s1,8(sp)
    80001698:	6105                	addi	sp,sp,32
    8000169a:	8082                	ret

000000008000169c <sleep>:

// Atomically release lock and sleep on chan.
// Reacquires lock when awakened.
void sleep(void *chan, struct spinlock *lk)
{
    8000169c:	7179                	addi	sp,sp,-48
    8000169e:	f406                	sd	ra,40(sp)
    800016a0:	f022                	sd	s0,32(sp)
    800016a2:	ec26                	sd	s1,24(sp)
    800016a4:	e84a                	sd	s2,16(sp)
    800016a6:	e44e                	sd	s3,8(sp)
    800016a8:	1800                	addi	s0,sp,48
    800016aa:	89aa                	mv	s3,a0
    800016ac:	892e                	mv	s2,a1
    struct proc *p = myproc();
    800016ae:	00000097          	auipc	ra,0x0
    800016b2:	88a080e7          	jalr	-1910(ra) # 80000f38 <myproc>
    800016b6:	84aa                	mv	s1,a0
    // Once we hold p->lock, we can be
    // guaranteed that we won't miss any wakeup
    // (wakeup locks p->lock),
    // so it's okay to release lk.

    acquire(&p->lock); // DOC: sleeplock1
    800016b8:	00005097          	auipc	ra,0x5
    800016bc:	cbc080e7          	jalr	-836(ra) # 80006374 <acquire>
    release(lk);
    800016c0:	854a                	mv	a0,s2
    800016c2:	00005097          	auipc	ra,0x5
    800016c6:	d66080e7          	jalr	-666(ra) # 80006428 <release>

    // Go to sleep.
    p->chan = chan;
    800016ca:	0334b023          	sd	s3,32(s1)
    p->state = SLEEPING;
    800016ce:	4789                	li	a5,2
    800016d0:	cc9c                	sw	a5,24(s1)

    sched();
    800016d2:	00000097          	auipc	ra,0x0
    800016d6:	eb8080e7          	jalr	-328(ra) # 8000158a <sched>

    // Tidy up.
    p->chan = 0;
    800016da:	0204b023          	sd	zero,32(s1)

    // Reacquire original lock.
    release(&p->lock);
    800016de:	8526                	mv	a0,s1
    800016e0:	00005097          	auipc	ra,0x5
    800016e4:	d48080e7          	jalr	-696(ra) # 80006428 <release>
    acquire(lk);
    800016e8:	854a                	mv	a0,s2
    800016ea:	00005097          	auipc	ra,0x5
    800016ee:	c8a080e7          	jalr	-886(ra) # 80006374 <acquire>
}
    800016f2:	70a2                	ld	ra,40(sp)
    800016f4:	7402                	ld	s0,32(sp)
    800016f6:	64e2                	ld	s1,24(sp)
    800016f8:	6942                	ld	s2,16(sp)
    800016fa:	69a2                	ld	s3,8(sp)
    800016fc:	6145                	addi	sp,sp,48
    800016fe:	8082                	ret

0000000080001700 <wakeup>:

// Wake up all processes sleeping on chan.
// Must be called without any p->lock.
void wakeup(void *chan)
{
    80001700:	7139                	addi	sp,sp,-64
    80001702:	fc06                	sd	ra,56(sp)
    80001704:	f822                	sd	s0,48(sp)
    80001706:	f426                	sd	s1,40(sp)
    80001708:	f04a                	sd	s2,32(sp)
    8000170a:	ec4e                	sd	s3,24(sp)
    8000170c:	e852                	sd	s4,16(sp)
    8000170e:	e456                	sd	s5,8(sp)
    80001710:	0080                	addi	s0,sp,64
    80001712:	8a2a                	mv	s4,a0
    struct proc *p;

    for (p = proc; p < &proc[NPROC]; p++) {
    80001714:	00007497          	auipc	s1,0x7
    80001718:	68c48493          	addi	s1,s1,1676 # 80008da0 <proc>
        if (p != myproc()) {
            acquire(&p->lock);
            if (p->state == SLEEPING && p->chan == chan) {
    8000171c:	4989                	li	s3,2
                p->state = RUNNABLE;
    8000171e:	4a8d                	li	s5,3
    for (p = proc; p < &proc[NPROC]; p++) {
    80001720:	0000d917          	auipc	s2,0xd
    80001724:	28090913          	addi	s2,s2,640 # 8000e9a0 <tickslock>
    80001728:	a811                	j	8000173c <wakeup+0x3c>
            }
            release(&p->lock);
    8000172a:	8526                	mv	a0,s1
    8000172c:	00005097          	auipc	ra,0x5
    80001730:	cfc080e7          	jalr	-772(ra) # 80006428 <release>
    for (p = proc; p < &proc[NPROC]; p++) {
    80001734:	17048493          	addi	s1,s1,368
    80001738:	03248663          	beq	s1,s2,80001764 <wakeup+0x64>
        if (p != myproc()) {
    8000173c:	fffff097          	auipc	ra,0xfffff
    80001740:	7fc080e7          	jalr	2044(ra) # 80000f38 <myproc>
    80001744:	fea488e3          	beq	s1,a0,80001734 <wakeup+0x34>
            acquire(&p->lock);
    80001748:	8526                	mv	a0,s1
    8000174a:	00005097          	auipc	ra,0x5
    8000174e:	c2a080e7          	jalr	-982(ra) # 80006374 <acquire>
            if (p->state == SLEEPING && p->chan == chan) {
    80001752:	4c9c                	lw	a5,24(s1)
    80001754:	fd379be3          	bne	a5,s3,8000172a <wakeup+0x2a>
    80001758:	709c                	ld	a5,32(s1)
    8000175a:	fd4798e3          	bne	a5,s4,8000172a <wakeup+0x2a>
                p->state = RUNNABLE;
    8000175e:	0154ac23          	sw	s5,24(s1)
    80001762:	b7e1                	j	8000172a <wakeup+0x2a>
        }
    }
}
    80001764:	70e2                	ld	ra,56(sp)
    80001766:	7442                	ld	s0,48(sp)
    80001768:	74a2                	ld	s1,40(sp)
    8000176a:	7902                	ld	s2,32(sp)
    8000176c:	69e2                	ld	s3,24(sp)
    8000176e:	6a42                	ld	s4,16(sp)
    80001770:	6aa2                	ld	s5,8(sp)
    80001772:	6121                	addi	sp,sp,64
    80001774:	8082                	ret

0000000080001776 <reparent>:
{
    80001776:	7179                	addi	sp,sp,-48
    80001778:	f406                	sd	ra,40(sp)
    8000177a:	f022                	sd	s0,32(sp)
    8000177c:	ec26                	sd	s1,24(sp)
    8000177e:	e84a                	sd	s2,16(sp)
    80001780:	e44e                	sd	s3,8(sp)
    80001782:	e052                	sd	s4,0(sp)
    80001784:	1800                	addi	s0,sp,48
    80001786:	892a                	mv	s2,a0
    for (pp = proc; pp < &proc[NPROC]; pp++) {
    80001788:	00007497          	auipc	s1,0x7
    8000178c:	61848493          	addi	s1,s1,1560 # 80008da0 <proc>
            pp->parent = initproc;
    80001790:	00007a17          	auipc	s4,0x7
    80001794:	1a0a0a13          	addi	s4,s4,416 # 80008930 <initproc>
    for (pp = proc; pp < &proc[NPROC]; pp++) {
    80001798:	0000d997          	auipc	s3,0xd
    8000179c:	20898993          	addi	s3,s3,520 # 8000e9a0 <tickslock>
    800017a0:	a029                	j	800017aa <reparent+0x34>
    800017a2:	17048493          	addi	s1,s1,368
    800017a6:	01348d63          	beq	s1,s3,800017c0 <reparent+0x4a>
        if (pp->parent == p) {
    800017aa:	7c9c                	ld	a5,56(s1)
    800017ac:	ff279be3          	bne	a5,s2,800017a2 <reparent+0x2c>
            pp->parent = initproc;
    800017b0:	000a3503          	ld	a0,0(s4)
    800017b4:	fc88                	sd	a0,56(s1)
            wakeup(initproc);
    800017b6:	00000097          	auipc	ra,0x0
    800017ba:	f4a080e7          	jalr	-182(ra) # 80001700 <wakeup>
    800017be:	b7d5                	j	800017a2 <reparent+0x2c>
}
    800017c0:	70a2                	ld	ra,40(sp)
    800017c2:	7402                	ld	s0,32(sp)
    800017c4:	64e2                	ld	s1,24(sp)
    800017c6:	6942                	ld	s2,16(sp)
    800017c8:	69a2                	ld	s3,8(sp)
    800017ca:	6a02                	ld	s4,0(sp)
    800017cc:	6145                	addi	sp,sp,48
    800017ce:	8082                	ret

00000000800017d0 <exit>:
{
    800017d0:	7179                	addi	sp,sp,-48
    800017d2:	f406                	sd	ra,40(sp)
    800017d4:	f022                	sd	s0,32(sp)
    800017d6:	ec26                	sd	s1,24(sp)
    800017d8:	e84a                	sd	s2,16(sp)
    800017da:	e44e                	sd	s3,8(sp)
    800017dc:	e052                	sd	s4,0(sp)
    800017de:	1800                	addi	s0,sp,48
    800017e0:	8a2a                	mv	s4,a0
    struct proc *p = myproc();
    800017e2:	fffff097          	auipc	ra,0xfffff
    800017e6:	756080e7          	jalr	1878(ra) # 80000f38 <myproc>
    800017ea:	89aa                	mv	s3,a0
    if (p == initproc)
    800017ec:	00007797          	auipc	a5,0x7
    800017f0:	1447b783          	ld	a5,324(a5) # 80008930 <initproc>
    800017f4:	0d050493          	addi	s1,a0,208
    800017f8:	15050913          	addi	s2,a0,336
    800017fc:	02a79363          	bne	a5,a0,80001822 <exit+0x52>
        panic("init exiting");
    80001800:	00007517          	auipc	a0,0x7
    80001804:	a0050513          	addi	a0,a0,-1536 # 80008200 <etext+0x200>
    80001808:	00004097          	auipc	ra,0x4
    8000180c:	634080e7          	jalr	1588(ra) # 80005e3c <panic>
            fileclose(f);
    80001810:	00002097          	auipc	ra,0x2
    80001814:	3e4080e7          	jalr	996(ra) # 80003bf4 <fileclose>
            p->ofile[fd] = 0;
    80001818:	0004b023          	sd	zero,0(s1)
    for (int fd = 0; fd < NOFILE; fd++) {
    8000181c:	04a1                	addi	s1,s1,8
    8000181e:	01248563          	beq	s1,s2,80001828 <exit+0x58>
        if (p->ofile[fd]) {
    80001822:	6088                	ld	a0,0(s1)
    80001824:	f575                	bnez	a0,80001810 <exit+0x40>
    80001826:	bfdd                	j	8000181c <exit+0x4c>
    begin_op();
    80001828:	00002097          	auipc	ra,0x2
    8000182c:	f04080e7          	jalr	-252(ra) # 8000372c <begin_op>
    iput(p->cwd);
    80001830:	1509b503          	ld	a0,336(s3)
    80001834:	00001097          	auipc	ra,0x1
    80001838:	6e6080e7          	jalr	1766(ra) # 80002f1a <iput>
    end_op();
    8000183c:	00002097          	auipc	ra,0x2
    80001840:	f6e080e7          	jalr	-146(ra) # 800037aa <end_op>
    p->cwd = 0;
    80001844:	1409b823          	sd	zero,336(s3)
    acquire(&wait_lock);
    80001848:	00007497          	auipc	s1,0x7
    8000184c:	14048493          	addi	s1,s1,320 # 80008988 <wait_lock>
    80001850:	8526                	mv	a0,s1
    80001852:	00005097          	auipc	ra,0x5
    80001856:	b22080e7          	jalr	-1246(ra) # 80006374 <acquire>
    reparent(p);
    8000185a:	854e                	mv	a0,s3
    8000185c:	00000097          	auipc	ra,0x0
    80001860:	f1a080e7          	jalr	-230(ra) # 80001776 <reparent>
    wakeup(p->parent);
    80001864:	0389b503          	ld	a0,56(s3)
    80001868:	00000097          	auipc	ra,0x0
    8000186c:	e98080e7          	jalr	-360(ra) # 80001700 <wakeup>
    acquire(&p->lock);
    80001870:	854e                	mv	a0,s3
    80001872:	00005097          	auipc	ra,0x5
    80001876:	b02080e7          	jalr	-1278(ra) # 80006374 <acquire>
    p->xstate = status;
    8000187a:	0349a623          	sw	s4,44(s3)
    p->state = ZOMBIE;
    8000187e:	4795                	li	a5,5
    80001880:	00f9ac23          	sw	a5,24(s3)
    release(&wait_lock);
    80001884:	8526                	mv	a0,s1
    80001886:	00005097          	auipc	ra,0x5
    8000188a:	ba2080e7          	jalr	-1118(ra) # 80006428 <release>
    sched();
    8000188e:	00000097          	auipc	ra,0x0
    80001892:	cfc080e7          	jalr	-772(ra) # 8000158a <sched>
    panic("zombie exit");
    80001896:	00007517          	auipc	a0,0x7
    8000189a:	97a50513          	addi	a0,a0,-1670 # 80008210 <etext+0x210>
    8000189e:	00004097          	auipc	ra,0x4
    800018a2:	59e080e7          	jalr	1438(ra) # 80005e3c <panic>

00000000800018a6 <kill>:

// Kill the process with the given pid.
// The victim won't exit until it tries to return
// to user space (see usertrap() in trap.c).
int kill(int pid)
{
    800018a6:	7179                	addi	sp,sp,-48
    800018a8:	f406                	sd	ra,40(sp)
    800018aa:	f022                	sd	s0,32(sp)
    800018ac:	ec26                	sd	s1,24(sp)
    800018ae:	e84a                	sd	s2,16(sp)
    800018b0:	e44e                	sd	s3,8(sp)
    800018b2:	1800                	addi	s0,sp,48
    800018b4:	892a                	mv	s2,a0
    struct proc *p;

    for (p = proc; p < &proc[NPROC]; p++) {
    800018b6:	00007497          	auipc	s1,0x7
    800018ba:	4ea48493          	addi	s1,s1,1258 # 80008da0 <proc>
    800018be:	0000d997          	auipc	s3,0xd
    800018c2:	0e298993          	addi	s3,s3,226 # 8000e9a0 <tickslock>
        acquire(&p->lock);
    800018c6:	8526                	mv	a0,s1
    800018c8:	00005097          	auipc	ra,0x5
    800018cc:	aac080e7          	jalr	-1364(ra) # 80006374 <acquire>
        if (p->pid == pid) {
    800018d0:	589c                	lw	a5,48(s1)
    800018d2:	01278d63          	beq	a5,s2,800018ec <kill+0x46>
                p->state = RUNNABLE;
            }
            release(&p->lock);
            return 0;
        }
        release(&p->lock);
    800018d6:	8526                	mv	a0,s1
    800018d8:	00005097          	auipc	ra,0x5
    800018dc:	b50080e7          	jalr	-1200(ra) # 80006428 <release>
    for (p = proc; p < &proc[NPROC]; p++) {
    800018e0:	17048493          	addi	s1,s1,368
    800018e4:	ff3491e3          	bne	s1,s3,800018c6 <kill+0x20>
    }
    return -1;
    800018e8:	557d                	li	a0,-1
    800018ea:	a829                	j	80001904 <kill+0x5e>
            p->killed = 1;
    800018ec:	4785                	li	a5,1
    800018ee:	d49c                	sw	a5,40(s1)
            if (p->state == SLEEPING) {
    800018f0:	4c98                	lw	a4,24(s1)
    800018f2:	4789                	li	a5,2
    800018f4:	00f70f63          	beq	a4,a5,80001912 <kill+0x6c>
            release(&p->lock);
    800018f8:	8526                	mv	a0,s1
    800018fa:	00005097          	auipc	ra,0x5
    800018fe:	b2e080e7          	jalr	-1234(ra) # 80006428 <release>
            return 0;
    80001902:	4501                	li	a0,0
}
    80001904:	70a2                	ld	ra,40(sp)
    80001906:	7402                	ld	s0,32(sp)
    80001908:	64e2                	ld	s1,24(sp)
    8000190a:	6942                	ld	s2,16(sp)
    8000190c:	69a2                	ld	s3,8(sp)
    8000190e:	6145                	addi	sp,sp,48
    80001910:	8082                	ret
                p->state = RUNNABLE;
    80001912:	478d                	li	a5,3
    80001914:	cc9c                	sw	a5,24(s1)
    80001916:	b7cd                	j	800018f8 <kill+0x52>

0000000080001918 <setkilled>:

void setkilled(struct proc *p)
{
    80001918:	1101                	addi	sp,sp,-32
    8000191a:	ec06                	sd	ra,24(sp)
    8000191c:	e822                	sd	s0,16(sp)
    8000191e:	e426                	sd	s1,8(sp)
    80001920:	1000                	addi	s0,sp,32
    80001922:	84aa                	mv	s1,a0
    acquire(&p->lock);
    80001924:	00005097          	auipc	ra,0x5
    80001928:	a50080e7          	jalr	-1456(ra) # 80006374 <acquire>
    p->killed = 1;
    8000192c:	4785                	li	a5,1
    8000192e:	d49c                	sw	a5,40(s1)
    release(&p->lock);
    80001930:	8526                	mv	a0,s1
    80001932:	00005097          	auipc	ra,0x5
    80001936:	af6080e7          	jalr	-1290(ra) # 80006428 <release>
}
    8000193a:	60e2                	ld	ra,24(sp)
    8000193c:	6442                	ld	s0,16(sp)
    8000193e:	64a2                	ld	s1,8(sp)
    80001940:	6105                	addi	sp,sp,32
    80001942:	8082                	ret

0000000080001944 <killed>:

int killed(struct proc *p)
{
    80001944:	1101                	addi	sp,sp,-32
    80001946:	ec06                	sd	ra,24(sp)
    80001948:	e822                	sd	s0,16(sp)
    8000194a:	e426                	sd	s1,8(sp)
    8000194c:	e04a                	sd	s2,0(sp)
    8000194e:	1000                	addi	s0,sp,32
    80001950:	84aa                	mv	s1,a0
    int k;

    acquire(&p->lock);
    80001952:	00005097          	auipc	ra,0x5
    80001956:	a22080e7          	jalr	-1502(ra) # 80006374 <acquire>
    k = p->killed;
    8000195a:	0284a903          	lw	s2,40(s1)
    release(&p->lock);
    8000195e:	8526                	mv	a0,s1
    80001960:	00005097          	auipc	ra,0x5
    80001964:	ac8080e7          	jalr	-1336(ra) # 80006428 <release>
    return k;
}
    80001968:	854a                	mv	a0,s2
    8000196a:	60e2                	ld	ra,24(sp)
    8000196c:	6442                	ld	s0,16(sp)
    8000196e:	64a2                	ld	s1,8(sp)
    80001970:	6902                	ld	s2,0(sp)
    80001972:	6105                	addi	sp,sp,32
    80001974:	8082                	ret

0000000080001976 <wait>:
{
    80001976:	715d                	addi	sp,sp,-80
    80001978:	e486                	sd	ra,72(sp)
    8000197a:	e0a2                	sd	s0,64(sp)
    8000197c:	fc26                	sd	s1,56(sp)
    8000197e:	f84a                	sd	s2,48(sp)
    80001980:	f44e                	sd	s3,40(sp)
    80001982:	f052                	sd	s4,32(sp)
    80001984:	ec56                	sd	s5,24(sp)
    80001986:	e85a                	sd	s6,16(sp)
    80001988:	e45e                	sd	s7,8(sp)
    8000198a:	e062                	sd	s8,0(sp)
    8000198c:	0880                	addi	s0,sp,80
    8000198e:	8b2a                	mv	s6,a0
    struct proc *p = myproc();
    80001990:	fffff097          	auipc	ra,0xfffff
    80001994:	5a8080e7          	jalr	1448(ra) # 80000f38 <myproc>
    80001998:	892a                	mv	s2,a0
    acquire(&wait_lock);
    8000199a:	00007517          	auipc	a0,0x7
    8000199e:	fee50513          	addi	a0,a0,-18 # 80008988 <wait_lock>
    800019a2:	00005097          	auipc	ra,0x5
    800019a6:	9d2080e7          	jalr	-1582(ra) # 80006374 <acquire>
        havekids = 0;
    800019aa:	4b81                	li	s7,0
                if (pp->state == ZOMBIE) {
    800019ac:	4a15                	li	s4,5
                havekids = 1;
    800019ae:	4a85                	li	s5,1
        for (pp = proc; pp < &proc[NPROC]; pp++) {
    800019b0:	0000d997          	auipc	s3,0xd
    800019b4:	ff098993          	addi	s3,s3,-16 # 8000e9a0 <tickslock>
        sleep(p, &wait_lock); // DOC: wait-sleep
    800019b8:	00007c17          	auipc	s8,0x7
    800019bc:	fd0c0c13          	addi	s8,s8,-48 # 80008988 <wait_lock>
        havekids = 0;
    800019c0:	875e                	mv	a4,s7
        for (pp = proc; pp < &proc[NPROC]; pp++) {
    800019c2:	00007497          	auipc	s1,0x7
    800019c6:	3de48493          	addi	s1,s1,990 # 80008da0 <proc>
    800019ca:	a0bd                	j	80001a38 <wait+0xc2>
                    pid = pp->pid;
    800019cc:	0304a983          	lw	s3,48(s1)
                    if (addr != 0 && copyout(p->pagetable, addr, (char *)&pp->xstate, sizeof(pp->xstate)) < 0) {
    800019d0:	000b0e63          	beqz	s6,800019ec <wait+0x76>
    800019d4:	4691                	li	a3,4
    800019d6:	02c48613          	addi	a2,s1,44
    800019da:	85da                	mv	a1,s6
    800019dc:	05093503          	ld	a0,80(s2)
    800019e0:	fffff097          	auipc	ra,0xfffff
    800019e4:	134080e7          	jalr	308(ra) # 80000b14 <copyout>
    800019e8:	02054563          	bltz	a0,80001a12 <wait+0x9c>
                    freeproc(pp);
    800019ec:	8526                	mv	a0,s1
    800019ee:	fffff097          	auipc	ra,0xfffff
    800019f2:	770080e7          	jalr	1904(ra) # 8000115e <freeproc>
                    release(&pp->lock);
    800019f6:	8526                	mv	a0,s1
    800019f8:	00005097          	auipc	ra,0x5
    800019fc:	a30080e7          	jalr	-1488(ra) # 80006428 <release>
                    release(&wait_lock);
    80001a00:	00007517          	auipc	a0,0x7
    80001a04:	f8850513          	addi	a0,a0,-120 # 80008988 <wait_lock>
    80001a08:	00005097          	auipc	ra,0x5
    80001a0c:	a20080e7          	jalr	-1504(ra) # 80006428 <release>
                    return pid;
    80001a10:	a0b5                	j	80001a7c <wait+0x106>
                        release(&pp->lock);
    80001a12:	8526                	mv	a0,s1
    80001a14:	00005097          	auipc	ra,0x5
    80001a18:	a14080e7          	jalr	-1516(ra) # 80006428 <release>
                        release(&wait_lock);
    80001a1c:	00007517          	auipc	a0,0x7
    80001a20:	f6c50513          	addi	a0,a0,-148 # 80008988 <wait_lock>
    80001a24:	00005097          	auipc	ra,0x5
    80001a28:	a04080e7          	jalr	-1532(ra) # 80006428 <release>
                        return -1;
    80001a2c:	59fd                	li	s3,-1
    80001a2e:	a0b9                	j	80001a7c <wait+0x106>
        for (pp = proc; pp < &proc[NPROC]; pp++) {
    80001a30:	17048493          	addi	s1,s1,368
    80001a34:	03348463          	beq	s1,s3,80001a5c <wait+0xe6>
            if (pp->parent == p) {
    80001a38:	7c9c                	ld	a5,56(s1)
    80001a3a:	ff279be3          	bne	a5,s2,80001a30 <wait+0xba>
                acquire(&pp->lock);
    80001a3e:	8526                	mv	a0,s1
    80001a40:	00005097          	auipc	ra,0x5
    80001a44:	934080e7          	jalr	-1740(ra) # 80006374 <acquire>
                if (pp->state == ZOMBIE) {
    80001a48:	4c9c                	lw	a5,24(s1)
    80001a4a:	f94781e3          	beq	a5,s4,800019cc <wait+0x56>
                release(&pp->lock);
    80001a4e:	8526                	mv	a0,s1
    80001a50:	00005097          	auipc	ra,0x5
    80001a54:	9d8080e7          	jalr	-1576(ra) # 80006428 <release>
                havekids = 1;
    80001a58:	8756                	mv	a4,s5
    80001a5a:	bfd9                	j	80001a30 <wait+0xba>
        if (!havekids || killed(p)) {
    80001a5c:	c719                	beqz	a4,80001a6a <wait+0xf4>
    80001a5e:	854a                	mv	a0,s2
    80001a60:	00000097          	auipc	ra,0x0
    80001a64:	ee4080e7          	jalr	-284(ra) # 80001944 <killed>
    80001a68:	c51d                	beqz	a0,80001a96 <wait+0x120>
            release(&wait_lock);
    80001a6a:	00007517          	auipc	a0,0x7
    80001a6e:	f1e50513          	addi	a0,a0,-226 # 80008988 <wait_lock>
    80001a72:	00005097          	auipc	ra,0x5
    80001a76:	9b6080e7          	jalr	-1610(ra) # 80006428 <release>
            return -1;
    80001a7a:	59fd                	li	s3,-1
}
    80001a7c:	854e                	mv	a0,s3
    80001a7e:	60a6                	ld	ra,72(sp)
    80001a80:	6406                	ld	s0,64(sp)
    80001a82:	74e2                	ld	s1,56(sp)
    80001a84:	7942                	ld	s2,48(sp)
    80001a86:	79a2                	ld	s3,40(sp)
    80001a88:	7a02                	ld	s4,32(sp)
    80001a8a:	6ae2                	ld	s5,24(sp)
    80001a8c:	6b42                	ld	s6,16(sp)
    80001a8e:	6ba2                	ld	s7,8(sp)
    80001a90:	6c02                	ld	s8,0(sp)
    80001a92:	6161                	addi	sp,sp,80
    80001a94:	8082                	ret
        sleep(p, &wait_lock); // DOC: wait-sleep
    80001a96:	85e2                	mv	a1,s8
    80001a98:	854a                	mv	a0,s2
    80001a9a:	00000097          	auipc	ra,0x0
    80001a9e:	c02080e7          	jalr	-1022(ra) # 8000169c <sleep>
        havekids = 0;
    80001aa2:	bf39                	j	800019c0 <wait+0x4a>

0000000080001aa4 <either_copyout>:

// Copy to either a user address, or kernel address,
// depending on usr_dst.
// Returns 0 on success, -1 on error.
int either_copyout(int user_dst, uint64 dst, void *src, uint64 len)
{
    80001aa4:	7179                	addi	sp,sp,-48
    80001aa6:	f406                	sd	ra,40(sp)
    80001aa8:	f022                	sd	s0,32(sp)
    80001aaa:	ec26                	sd	s1,24(sp)
    80001aac:	e84a                	sd	s2,16(sp)
    80001aae:	e44e                	sd	s3,8(sp)
    80001ab0:	e052                	sd	s4,0(sp)
    80001ab2:	1800                	addi	s0,sp,48
    80001ab4:	84aa                	mv	s1,a0
    80001ab6:	892e                	mv	s2,a1
    80001ab8:	89b2                	mv	s3,a2
    80001aba:	8a36                	mv	s4,a3
    struct proc *p = myproc();
    80001abc:	fffff097          	auipc	ra,0xfffff
    80001ac0:	47c080e7          	jalr	1148(ra) # 80000f38 <myproc>
    if (user_dst) {
    80001ac4:	c08d                	beqz	s1,80001ae6 <either_copyout+0x42>
        return copyout(p->pagetable, dst, src, len);
    80001ac6:	86d2                	mv	a3,s4
    80001ac8:	864e                	mv	a2,s3
    80001aca:	85ca                	mv	a1,s2
    80001acc:	6928                	ld	a0,80(a0)
    80001ace:	fffff097          	auipc	ra,0xfffff
    80001ad2:	046080e7          	jalr	70(ra) # 80000b14 <copyout>
    }
    else {
        memmove((char *)dst, src, len);
        return 0;
    }
}
    80001ad6:	70a2                	ld	ra,40(sp)
    80001ad8:	7402                	ld	s0,32(sp)
    80001ada:	64e2                	ld	s1,24(sp)
    80001adc:	6942                	ld	s2,16(sp)
    80001ade:	69a2                	ld	s3,8(sp)
    80001ae0:	6a02                	ld	s4,0(sp)
    80001ae2:	6145                	addi	sp,sp,48
    80001ae4:	8082                	ret
        memmove((char *)dst, src, len);
    80001ae6:	000a061b          	sext.w	a2,s4
    80001aea:	85ce                	mv	a1,s3
    80001aec:	854a                	mv	a0,s2
    80001aee:	ffffe097          	auipc	ra,0xffffe
    80001af2:	6e8080e7          	jalr	1768(ra) # 800001d6 <memmove>
        return 0;
    80001af6:	8526                	mv	a0,s1
    80001af8:	bff9                	j	80001ad6 <either_copyout+0x32>

0000000080001afa <either_copyin>:

// Copy from either a user address, or kernel address,
// depending on usr_src.
// Returns 0 on success, -1 on error.
int either_copyin(void *dst, int user_src, uint64 src, uint64 len)
{
    80001afa:	7179                	addi	sp,sp,-48
    80001afc:	f406                	sd	ra,40(sp)
    80001afe:	f022                	sd	s0,32(sp)
    80001b00:	ec26                	sd	s1,24(sp)
    80001b02:	e84a                	sd	s2,16(sp)
    80001b04:	e44e                	sd	s3,8(sp)
    80001b06:	e052                	sd	s4,0(sp)
    80001b08:	1800                	addi	s0,sp,48
    80001b0a:	892a                	mv	s2,a0
    80001b0c:	84ae                	mv	s1,a1
    80001b0e:	89b2                	mv	s3,a2
    80001b10:	8a36                	mv	s4,a3
    struct proc *p = myproc();
    80001b12:	fffff097          	auipc	ra,0xfffff
    80001b16:	426080e7          	jalr	1062(ra) # 80000f38 <myproc>
    if (user_src) {
    80001b1a:	c08d                	beqz	s1,80001b3c <either_copyin+0x42>
        return copyin(p->pagetable, dst, src, len);
    80001b1c:	86d2                	mv	a3,s4
    80001b1e:	864e                	mv	a2,s3
    80001b20:	85ca                	mv	a1,s2
    80001b22:	6928                	ld	a0,80(a0)
    80001b24:	fffff097          	auipc	ra,0xfffff
    80001b28:	07c080e7          	jalr	124(ra) # 80000ba0 <copyin>
    }
    else {
        memmove(dst, (char *)src, len);
        return 0;
    }
}
    80001b2c:	70a2                	ld	ra,40(sp)
    80001b2e:	7402                	ld	s0,32(sp)
    80001b30:	64e2                	ld	s1,24(sp)
    80001b32:	6942                	ld	s2,16(sp)
    80001b34:	69a2                	ld	s3,8(sp)
    80001b36:	6a02                	ld	s4,0(sp)
    80001b38:	6145                	addi	sp,sp,48
    80001b3a:	8082                	ret
        memmove(dst, (char *)src, len);
    80001b3c:	000a061b          	sext.w	a2,s4
    80001b40:	85ce                	mv	a1,s3
    80001b42:	854a                	mv	a0,s2
    80001b44:	ffffe097          	auipc	ra,0xffffe
    80001b48:	692080e7          	jalr	1682(ra) # 800001d6 <memmove>
        return 0;
    80001b4c:	8526                	mv	a0,s1
    80001b4e:	bff9                	j	80001b2c <either_copyin+0x32>

0000000080001b50 <procdump>:

// Print a process listing to console.  For debugging.
// Runs when user types ^P on console.
// No lock to avoid wedging a stuck machine further.
void procdump(void)
{
    80001b50:	715d                	addi	sp,sp,-80
    80001b52:	e486                	sd	ra,72(sp)
    80001b54:	e0a2                	sd	s0,64(sp)
    80001b56:	fc26                	sd	s1,56(sp)
    80001b58:	f84a                	sd	s2,48(sp)
    80001b5a:	f44e                	sd	s3,40(sp)
    80001b5c:	f052                	sd	s4,32(sp)
    80001b5e:	ec56                	sd	s5,24(sp)
    80001b60:	e85a                	sd	s6,16(sp)
    80001b62:	e45e                	sd	s7,8(sp)
    80001b64:	0880                	addi	s0,sp,80
    static char *states[] = {[UNUSED] "unused", [USED] "used", [SLEEPING] "sleep ", [RUNNABLE] "runble", [RUNNING] "run   ", [ZOMBIE] "zombie"};
    struct proc *p;
    char *state;

    printf("\n");
    80001b66:	00006517          	auipc	a0,0x6
    80001b6a:	4e250513          	addi	a0,a0,1250 # 80008048 <etext+0x48>
    80001b6e:	00004097          	auipc	ra,0x4
    80001b72:	318080e7          	jalr	792(ra) # 80005e86 <printf>
    for (p = proc; p < &proc[NPROC]; p++) {
    80001b76:	00007497          	auipc	s1,0x7
    80001b7a:	38248493          	addi	s1,s1,898 # 80008ef8 <proc+0x158>
    80001b7e:	0000d917          	auipc	s2,0xd
    80001b82:	f7a90913          	addi	s2,s2,-134 # 8000eaf8 <bcache+0x140>
        if (p->state == UNUSED)
            continue;
        if (p->state >= 0 && p->state < NELEM(states) && states[p->state])
    80001b86:	4b15                	li	s6,5
            state = states[p->state];
        else
            state = "???";
    80001b88:	00006997          	auipc	s3,0x6
    80001b8c:	69898993          	addi	s3,s3,1688 # 80008220 <etext+0x220>
        printf("%d %s %s", p->pid, state, p->name);
    80001b90:	00006a97          	auipc	s5,0x6
    80001b94:	698a8a93          	addi	s5,s5,1688 # 80008228 <etext+0x228>
        printf("\n");
    80001b98:	00006a17          	auipc	s4,0x6
    80001b9c:	4b0a0a13          	addi	s4,s4,1200 # 80008048 <etext+0x48>
        if (p->state >= 0 && p->state < NELEM(states) && states[p->state])
    80001ba0:	00006b97          	auipc	s7,0x6
    80001ba4:	6c8b8b93          	addi	s7,s7,1736 # 80008268 <states.0>
    80001ba8:	a00d                	j	80001bca <procdump+0x7a>
        printf("%d %s %s", p->pid, state, p->name);
    80001baa:	ed86a583          	lw	a1,-296(a3)
    80001bae:	8556                	mv	a0,s5
    80001bb0:	00004097          	auipc	ra,0x4
    80001bb4:	2d6080e7          	jalr	726(ra) # 80005e86 <printf>
        printf("\n");
    80001bb8:	8552                	mv	a0,s4
    80001bba:	00004097          	auipc	ra,0x4
    80001bbe:	2cc080e7          	jalr	716(ra) # 80005e86 <printf>
    for (p = proc; p < &proc[NPROC]; p++) {
    80001bc2:	17048493          	addi	s1,s1,368
    80001bc6:	03248263          	beq	s1,s2,80001bea <procdump+0x9a>
        if (p->state == UNUSED)
    80001bca:	86a6                	mv	a3,s1
    80001bcc:	ec04a783          	lw	a5,-320(s1)
    80001bd0:	dbed                	beqz	a5,80001bc2 <procdump+0x72>
            state = "???";
    80001bd2:	864e                	mv	a2,s3
        if (p->state >= 0 && p->state < NELEM(states) && states[p->state])
    80001bd4:	fcfb6be3          	bltu	s6,a5,80001baa <procdump+0x5a>
    80001bd8:	02079713          	slli	a4,a5,0x20
    80001bdc:	01d75793          	srli	a5,a4,0x1d
    80001be0:	97de                	add	a5,a5,s7
    80001be2:	6390                	ld	a2,0(a5)
    80001be4:	f279                	bnez	a2,80001baa <procdump+0x5a>
            state = "???";
    80001be6:	864e                	mv	a2,s3
    80001be8:	b7c9                	j	80001baa <procdump+0x5a>
    }
}
    80001bea:	60a6                	ld	ra,72(sp)
    80001bec:	6406                	ld	s0,64(sp)
    80001bee:	74e2                	ld	s1,56(sp)
    80001bf0:	7942                	ld	s2,48(sp)
    80001bf2:	79a2                	ld	s3,40(sp)
    80001bf4:	7a02                	ld	s4,32(sp)
    80001bf6:	6ae2                	ld	s5,24(sp)
    80001bf8:	6b42                	ld	s6,16(sp)
    80001bfa:	6ba2                	ld	s7,8(sp)
    80001bfc:	6161                	addi	sp,sp,80
    80001bfe:	8082                	ret

0000000080001c00 <swtch>:
    80001c00:	00153023          	sd	ra,0(a0)
    80001c04:	00253423          	sd	sp,8(a0)
    80001c08:	e900                	sd	s0,16(a0)
    80001c0a:	ed04                	sd	s1,24(a0)
    80001c0c:	03253023          	sd	s2,32(a0)
    80001c10:	03353423          	sd	s3,40(a0)
    80001c14:	03453823          	sd	s4,48(a0)
    80001c18:	03553c23          	sd	s5,56(a0)
    80001c1c:	05653023          	sd	s6,64(a0)
    80001c20:	05753423          	sd	s7,72(a0)
    80001c24:	05853823          	sd	s8,80(a0)
    80001c28:	05953c23          	sd	s9,88(a0)
    80001c2c:	07a53023          	sd	s10,96(a0)
    80001c30:	07b53423          	sd	s11,104(a0)
    80001c34:	0005b083          	ld	ra,0(a1)
    80001c38:	0085b103          	ld	sp,8(a1)
    80001c3c:	6980                	ld	s0,16(a1)
    80001c3e:	6d84                	ld	s1,24(a1)
    80001c40:	0205b903          	ld	s2,32(a1)
    80001c44:	0285b983          	ld	s3,40(a1)
    80001c48:	0305ba03          	ld	s4,48(a1)
    80001c4c:	0385ba83          	ld	s5,56(a1)
    80001c50:	0405bb03          	ld	s6,64(a1)
    80001c54:	0485bb83          	ld	s7,72(a1)
    80001c58:	0505bc03          	ld	s8,80(a1)
    80001c5c:	0585bc83          	ld	s9,88(a1)
    80001c60:	0605bd03          	ld	s10,96(a1)
    80001c64:	0685bd83          	ld	s11,104(a1)
    80001c68:	8082                	ret

0000000080001c6a <trapinit>:

extern int devintr();

void
trapinit(void)
{
    80001c6a:	1141                	addi	sp,sp,-16
    80001c6c:	e406                	sd	ra,8(sp)
    80001c6e:	e022                	sd	s0,0(sp)
    80001c70:	0800                	addi	s0,sp,16
  initlock(&tickslock, "time");
    80001c72:	00006597          	auipc	a1,0x6
    80001c76:	62658593          	addi	a1,a1,1574 # 80008298 <states.0+0x30>
    80001c7a:	0000d517          	auipc	a0,0xd
    80001c7e:	d2650513          	addi	a0,a0,-730 # 8000e9a0 <tickslock>
    80001c82:	00004097          	auipc	ra,0x4
    80001c86:	662080e7          	jalr	1634(ra) # 800062e4 <initlock>
}
    80001c8a:	60a2                	ld	ra,8(sp)
    80001c8c:	6402                	ld	s0,0(sp)
    80001c8e:	0141                	addi	sp,sp,16
    80001c90:	8082                	ret

0000000080001c92 <trapinithart>:

// set up to take exceptions and traps while in the kernel.
void
trapinithart(void)
{
    80001c92:	1141                	addi	sp,sp,-16
    80001c94:	e422                	sd	s0,8(sp)
    80001c96:	0800                	addi	s0,sp,16
    asm volatile("csrw stvec, %0" : : "r"(x));
    80001c98:	00003797          	auipc	a5,0x3
    80001c9c:	5d878793          	addi	a5,a5,1496 # 80005270 <kernelvec>
    80001ca0:	10579073          	csrw	stvec,a5
  w_stvec((uint64)kernelvec);
}
    80001ca4:	6422                	ld	s0,8(sp)
    80001ca6:	0141                	addi	sp,sp,16
    80001ca8:	8082                	ret

0000000080001caa <usertrapret>:
//
// return to user space
//
void
usertrapret(void)
{
    80001caa:	1141                	addi	sp,sp,-16
    80001cac:	e406                	sd	ra,8(sp)
    80001cae:	e022                	sd	s0,0(sp)
    80001cb0:	0800                	addi	s0,sp,16
  struct proc *p = myproc();
    80001cb2:	fffff097          	auipc	ra,0xfffff
    80001cb6:	286080e7          	jalr	646(ra) # 80000f38 <myproc>
    asm volatile("csrr %0, sstatus" : "=r"(x));
    80001cba:	100027f3          	csrr	a5,sstatus
    w_sstatus(r_sstatus() & ~SSTATUS_SIE);
    80001cbe:	9bf5                	andi	a5,a5,-3
    asm volatile("csrw sstatus, %0" : : "r"(x));
    80001cc0:	10079073          	csrw	sstatus,a5
  // kerneltrap() to usertrap(), so turn off interrupts until
  // we're back in user space, where usertrap() is correct.
  intr_off();

  // send syscalls, interrupts, and exceptions to uservec in trampoline.S
  uint64 trampoline_uservec = TRAMPOLINE + (uservec - trampoline);
    80001cc4:	00005697          	auipc	a3,0x5
    80001cc8:	33c68693          	addi	a3,a3,828 # 80007000 <_trampoline>
    80001ccc:	00005717          	auipc	a4,0x5
    80001cd0:	33470713          	addi	a4,a4,820 # 80007000 <_trampoline>
    80001cd4:	8f15                	sub	a4,a4,a3
    80001cd6:	040007b7          	lui	a5,0x4000
    80001cda:	17fd                	addi	a5,a5,-1 # 3ffffff <_entry-0x7c000001>
    80001cdc:	07b2                	slli	a5,a5,0xc
    80001cde:	973e                	add	a4,a4,a5
    asm volatile("csrw stvec, %0" : : "r"(x));
    80001ce0:	10571073          	csrw	stvec,a4
  w_stvec(trampoline_uservec);

  // set up trapframe values that uservec will need when
  // the process next traps into the kernel.
  p->trapframe->kernel_satp = r_satp();         // kernel page table
    80001ce4:	6d38                	ld	a4,88(a0)
    asm volatile("csrr %0, satp" : "=r"(x));
    80001ce6:	18002673          	csrr	a2,satp
    80001cea:	e310                	sd	a2,0(a4)
  p->trapframe->kernel_sp = p->kstack + PGSIZE; // process's kernel stack
    80001cec:	6d30                	ld	a2,88(a0)
    80001cee:	6138                	ld	a4,64(a0)
    80001cf0:	6585                	lui	a1,0x1
    80001cf2:	972e                	add	a4,a4,a1
    80001cf4:	e618                	sd	a4,8(a2)
  p->trapframe->kernel_trap = (uint64)usertrap;
    80001cf6:	6d38                	ld	a4,88(a0)
    80001cf8:	00000617          	auipc	a2,0x0
    80001cfc:	13060613          	addi	a2,a2,304 # 80001e28 <usertrap>
    80001d00:	eb10                	sd	a2,16(a4)
  p->trapframe->kernel_hartid = r_tp();         // hartid for cpuid()
    80001d02:	6d38                	ld	a4,88(a0)
    asm volatile("mv %0, tp" : "=r"(x));
    80001d04:	8612                	mv	a2,tp
    80001d06:	f310                	sd	a2,32(a4)
    asm volatile("csrr %0, sstatus" : "=r"(x));
    80001d08:	10002773          	csrr	a4,sstatus
  // set up the registers that trampoline.S's sret will use
  // to get to user space.
  
  // set S Previous Privilege mode to User.
  unsigned long x = r_sstatus();
  x &= ~SSTATUS_SPP; // clear SPP to 0 for user mode
    80001d0c:	eff77713          	andi	a4,a4,-257
  x |= SSTATUS_SPIE; // enable interrupts in user mode
    80001d10:	02076713          	ori	a4,a4,32
    asm volatile("csrw sstatus, %0" : : "r"(x));
    80001d14:	10071073          	csrw	sstatus,a4
  w_sstatus(x);

  // set S Exception Program Counter to the saved user pc.
  w_sepc(p->trapframe->epc);
    80001d18:	6d38                	ld	a4,88(a0)
    asm volatile("csrw sepc, %0" : : "r"(x));
    80001d1a:	6f18                	ld	a4,24(a4)
    80001d1c:	14171073          	csrw	sepc,a4

  // tell trampoline.S the user page table to switch to.
  uint64 satp = MAKE_SATP(p->pagetable);
    80001d20:	6928                	ld	a0,80(a0)
    80001d22:	8131                	srli	a0,a0,0xc

  // jump to userret in trampoline.S at the top of memory, which 
  // switches to the user page table, restores user registers,
  // and switches to user mode with sret.
  uint64 trampoline_userret = TRAMPOLINE + (userret - trampoline);
    80001d24:	00005717          	auipc	a4,0x5
    80001d28:	37870713          	addi	a4,a4,888 # 8000709c <userret>
    80001d2c:	8f15                	sub	a4,a4,a3
    80001d2e:	97ba                	add	a5,a5,a4
  ((void (*)(uint64))trampoline_userret)(satp);
    80001d30:	577d                	li	a4,-1
    80001d32:	177e                	slli	a4,a4,0x3f
    80001d34:	8d59                	or	a0,a0,a4
    80001d36:	9782                	jalr	a5
}
    80001d38:	60a2                	ld	ra,8(sp)
    80001d3a:	6402                	ld	s0,0(sp)
    80001d3c:	0141                	addi	sp,sp,16
    80001d3e:	8082                	ret

0000000080001d40 <clockintr>:
  w_sstatus(sstatus);
}

void
clockintr()
{
    80001d40:	1101                	addi	sp,sp,-32
    80001d42:	ec06                	sd	ra,24(sp)
    80001d44:	e822                	sd	s0,16(sp)
    80001d46:	e426                	sd	s1,8(sp)
    80001d48:	1000                	addi	s0,sp,32
  acquire(&tickslock);
    80001d4a:	0000d497          	auipc	s1,0xd
    80001d4e:	c5648493          	addi	s1,s1,-938 # 8000e9a0 <tickslock>
    80001d52:	8526                	mv	a0,s1
    80001d54:	00004097          	auipc	ra,0x4
    80001d58:	620080e7          	jalr	1568(ra) # 80006374 <acquire>
  ticks++;
    80001d5c:	00007517          	auipc	a0,0x7
    80001d60:	bdc50513          	addi	a0,a0,-1060 # 80008938 <ticks>
    80001d64:	411c                	lw	a5,0(a0)
    80001d66:	2785                	addiw	a5,a5,1
    80001d68:	c11c                	sw	a5,0(a0)
  wakeup(&ticks);
    80001d6a:	00000097          	auipc	ra,0x0
    80001d6e:	996080e7          	jalr	-1642(ra) # 80001700 <wakeup>
  release(&tickslock);
    80001d72:	8526                	mv	a0,s1
    80001d74:	00004097          	auipc	ra,0x4
    80001d78:	6b4080e7          	jalr	1716(ra) # 80006428 <release>
}
    80001d7c:	60e2                	ld	ra,24(sp)
    80001d7e:	6442                	ld	s0,16(sp)
    80001d80:	64a2                	ld	s1,8(sp)
    80001d82:	6105                	addi	sp,sp,32
    80001d84:	8082                	ret

0000000080001d86 <devintr>:
// returns 2 if timer interrupt,
// 1 if other device,
// 0 if not recognized.
int
devintr()
{
    80001d86:	1101                	addi	sp,sp,-32
    80001d88:	ec06                	sd	ra,24(sp)
    80001d8a:	e822                	sd	s0,16(sp)
    80001d8c:	e426                	sd	s1,8(sp)
    80001d8e:	1000                	addi	s0,sp,32
    asm volatile("csrr %0, scause" : "=r"(x));
    80001d90:	14202773          	csrr	a4,scause
  uint64 scause = r_scause();

  if((scause & 0x8000000000000000L) &&
    80001d94:	00074d63          	bltz	a4,80001dae <devintr+0x28>
    // now allowed to interrupt again.
    if(irq)
      plic_complete(irq);

    return 1;
  } else if(scause == 0x8000000000000001L){
    80001d98:	57fd                	li	a5,-1
    80001d9a:	17fe                	slli	a5,a5,0x3f
    80001d9c:	0785                	addi	a5,a5,1
    // the SSIP bit in sip.
    w_sip(r_sip() & ~2);

    return 2;
  } else {
    return 0;
    80001d9e:	4501                	li	a0,0
  } else if(scause == 0x8000000000000001L){
    80001da0:	06f70363          	beq	a4,a5,80001e06 <devintr+0x80>
  }
}
    80001da4:	60e2                	ld	ra,24(sp)
    80001da6:	6442                	ld	s0,16(sp)
    80001da8:	64a2                	ld	s1,8(sp)
    80001daa:	6105                	addi	sp,sp,32
    80001dac:	8082                	ret
     (scause & 0xff) == 9){
    80001dae:	0ff77793          	zext.b	a5,a4
  if((scause & 0x8000000000000000L) &&
    80001db2:	46a5                	li	a3,9
    80001db4:	fed792e3          	bne	a5,a3,80001d98 <devintr+0x12>
    int irq = plic_claim();
    80001db8:	00003097          	auipc	ra,0x3
    80001dbc:	5c0080e7          	jalr	1472(ra) # 80005378 <plic_claim>
    80001dc0:	84aa                	mv	s1,a0
    if(irq == UART0_IRQ){
    80001dc2:	47a9                	li	a5,10
    80001dc4:	02f50763          	beq	a0,a5,80001df2 <devintr+0x6c>
    } else if(irq == VIRTIO0_IRQ){
    80001dc8:	4785                	li	a5,1
    80001dca:	02f50963          	beq	a0,a5,80001dfc <devintr+0x76>
    return 1;
    80001dce:	4505                	li	a0,1
    } else if(irq){
    80001dd0:	d8f1                	beqz	s1,80001da4 <devintr+0x1e>
      printf("unexpected interrupt irq=%d\n", irq);
    80001dd2:	85a6                	mv	a1,s1
    80001dd4:	00006517          	auipc	a0,0x6
    80001dd8:	4cc50513          	addi	a0,a0,1228 # 800082a0 <states.0+0x38>
    80001ddc:	00004097          	auipc	ra,0x4
    80001de0:	0aa080e7          	jalr	170(ra) # 80005e86 <printf>
      plic_complete(irq);
    80001de4:	8526                	mv	a0,s1
    80001de6:	00003097          	auipc	ra,0x3
    80001dea:	5b6080e7          	jalr	1462(ra) # 8000539c <plic_complete>
    return 1;
    80001dee:	4505                	li	a0,1
    80001df0:	bf55                	j	80001da4 <devintr+0x1e>
      uartintr();
    80001df2:	00004097          	auipc	ra,0x4
    80001df6:	4a2080e7          	jalr	1186(ra) # 80006294 <uartintr>
    80001dfa:	b7ed                	j	80001de4 <devintr+0x5e>
      virtio_disk_intr();
    80001dfc:	00004097          	auipc	ra,0x4
    80001e00:	a68080e7          	jalr	-1432(ra) # 80005864 <virtio_disk_intr>
    80001e04:	b7c5                	j	80001de4 <devintr+0x5e>
    if(cpuid() == 0){
    80001e06:	fffff097          	auipc	ra,0xfffff
    80001e0a:	106080e7          	jalr	262(ra) # 80000f0c <cpuid>
    80001e0e:	c901                	beqz	a0,80001e1e <devintr+0x98>
    asm volatile("csrr %0, sip" : "=r"(x));
    80001e10:	144027f3          	csrr	a5,sip
    w_sip(r_sip() & ~2);
    80001e14:	9bf5                	andi	a5,a5,-3
    asm volatile("csrw sip, %0" : : "r"(x));
    80001e16:	14479073          	csrw	sip,a5
    return 2;
    80001e1a:	4509                	li	a0,2
    80001e1c:	b761                	j	80001da4 <devintr+0x1e>
      clockintr();
    80001e1e:	00000097          	auipc	ra,0x0
    80001e22:	f22080e7          	jalr	-222(ra) # 80001d40 <clockintr>
    80001e26:	b7ed                	j	80001e10 <devintr+0x8a>

0000000080001e28 <usertrap>:
{
    80001e28:	1101                	addi	sp,sp,-32
    80001e2a:	ec06                	sd	ra,24(sp)
    80001e2c:	e822                	sd	s0,16(sp)
    80001e2e:	e426                	sd	s1,8(sp)
    80001e30:	e04a                	sd	s2,0(sp)
    80001e32:	1000                	addi	s0,sp,32
    asm volatile("csrr %0, sstatus" : "=r"(x));
    80001e34:	100027f3          	csrr	a5,sstatus
  if((r_sstatus() & SSTATUS_SPP) != 0)
    80001e38:	1007f793          	andi	a5,a5,256
    80001e3c:	e3b1                	bnez	a5,80001e80 <usertrap+0x58>
    asm volatile("csrw stvec, %0" : : "r"(x));
    80001e3e:	00003797          	auipc	a5,0x3
    80001e42:	43278793          	addi	a5,a5,1074 # 80005270 <kernelvec>
    80001e46:	10579073          	csrw	stvec,a5
  struct proc *p = myproc();
    80001e4a:	fffff097          	auipc	ra,0xfffff
    80001e4e:	0ee080e7          	jalr	238(ra) # 80000f38 <myproc>
    80001e52:	84aa                	mv	s1,a0
  p->trapframe->epc = r_sepc();
    80001e54:	6d3c                	ld	a5,88(a0)
    asm volatile("csrr %0, sepc" : "=r"(x));
    80001e56:	14102773          	csrr	a4,sepc
    80001e5a:	ef98                	sd	a4,24(a5)
    asm volatile("csrr %0, scause" : "=r"(x));
    80001e5c:	14202773          	csrr	a4,scause
  if(r_scause() == 8){
    80001e60:	47a1                	li	a5,8
    80001e62:	02f70763          	beq	a4,a5,80001e90 <usertrap+0x68>
  } else if((which_dev = devintr()) != 0){
    80001e66:	00000097          	auipc	ra,0x0
    80001e6a:	f20080e7          	jalr	-224(ra) # 80001d86 <devintr>
    80001e6e:	892a                	mv	s2,a0
    80001e70:	c151                	beqz	a0,80001ef4 <usertrap+0xcc>
  if(killed(p))
    80001e72:	8526                	mv	a0,s1
    80001e74:	00000097          	auipc	ra,0x0
    80001e78:	ad0080e7          	jalr	-1328(ra) # 80001944 <killed>
    80001e7c:	c929                	beqz	a0,80001ece <usertrap+0xa6>
    80001e7e:	a099                	j	80001ec4 <usertrap+0x9c>
    panic("usertrap: not from user mode");
    80001e80:	00006517          	auipc	a0,0x6
    80001e84:	44050513          	addi	a0,a0,1088 # 800082c0 <states.0+0x58>
    80001e88:	00004097          	auipc	ra,0x4
    80001e8c:	fb4080e7          	jalr	-76(ra) # 80005e3c <panic>
    if(killed(p))
    80001e90:	00000097          	auipc	ra,0x0
    80001e94:	ab4080e7          	jalr	-1356(ra) # 80001944 <killed>
    80001e98:	e921                	bnez	a0,80001ee8 <usertrap+0xc0>
    p->trapframe->epc += 4;
    80001e9a:	6cb8                	ld	a4,88(s1)
    80001e9c:	6f1c                	ld	a5,24(a4)
    80001e9e:	0791                	addi	a5,a5,4
    80001ea0:	ef1c                	sd	a5,24(a4)
    asm volatile("csrr %0, sstatus" : "=r"(x));
    80001ea2:	100027f3          	csrr	a5,sstatus
    w_sstatus(r_sstatus() | SSTATUS_SIE);
    80001ea6:	0027e793          	ori	a5,a5,2
    asm volatile("csrw sstatus, %0" : : "r"(x));
    80001eaa:	10079073          	csrw	sstatus,a5
    syscall();
    80001eae:	00000097          	auipc	ra,0x0
    80001eb2:	2d4080e7          	jalr	724(ra) # 80002182 <syscall>
  if(killed(p))
    80001eb6:	8526                	mv	a0,s1
    80001eb8:	00000097          	auipc	ra,0x0
    80001ebc:	a8c080e7          	jalr	-1396(ra) # 80001944 <killed>
    80001ec0:	c911                	beqz	a0,80001ed4 <usertrap+0xac>
    80001ec2:	4901                	li	s2,0
    exit(-1);
    80001ec4:	557d                	li	a0,-1
    80001ec6:	00000097          	auipc	ra,0x0
    80001eca:	90a080e7          	jalr	-1782(ra) # 800017d0 <exit>
  if(which_dev == 2)
    80001ece:	4789                	li	a5,2
    80001ed0:	04f90f63          	beq	s2,a5,80001f2e <usertrap+0x106>
  usertrapret();
    80001ed4:	00000097          	auipc	ra,0x0
    80001ed8:	dd6080e7          	jalr	-554(ra) # 80001caa <usertrapret>
}
    80001edc:	60e2                	ld	ra,24(sp)
    80001ede:	6442                	ld	s0,16(sp)
    80001ee0:	64a2                	ld	s1,8(sp)
    80001ee2:	6902                	ld	s2,0(sp)
    80001ee4:	6105                	addi	sp,sp,32
    80001ee6:	8082                	ret
      exit(-1);
    80001ee8:	557d                	li	a0,-1
    80001eea:	00000097          	auipc	ra,0x0
    80001eee:	8e6080e7          	jalr	-1818(ra) # 800017d0 <exit>
    80001ef2:	b765                	j	80001e9a <usertrap+0x72>
    asm volatile("csrr %0, scause" : "=r"(x));
    80001ef4:	142025f3          	csrr	a1,scause
    printf("usertrap(): unexpected scause %p pid=%d\n", r_scause(), p->pid);
    80001ef8:	5890                	lw	a2,48(s1)
    80001efa:	00006517          	auipc	a0,0x6
    80001efe:	3e650513          	addi	a0,a0,998 # 800082e0 <states.0+0x78>
    80001f02:	00004097          	auipc	ra,0x4
    80001f06:	f84080e7          	jalr	-124(ra) # 80005e86 <printf>
    asm volatile("csrr %0, sepc" : "=r"(x));
    80001f0a:	141025f3          	csrr	a1,sepc
    asm volatile("csrr %0, stval" : "=r"(x));
    80001f0e:	14302673          	csrr	a2,stval
    printf("            sepc=%p stval=%p\n", r_sepc(), r_stval());
    80001f12:	00006517          	auipc	a0,0x6
    80001f16:	3fe50513          	addi	a0,a0,1022 # 80008310 <states.0+0xa8>
    80001f1a:	00004097          	auipc	ra,0x4
    80001f1e:	f6c080e7          	jalr	-148(ra) # 80005e86 <printf>
    setkilled(p);
    80001f22:	8526                	mv	a0,s1
    80001f24:	00000097          	auipc	ra,0x0
    80001f28:	9f4080e7          	jalr	-1548(ra) # 80001918 <setkilled>
    80001f2c:	b769                	j	80001eb6 <usertrap+0x8e>
    yield();
    80001f2e:	fffff097          	auipc	ra,0xfffff
    80001f32:	732080e7          	jalr	1842(ra) # 80001660 <yield>
    80001f36:	bf79                	j	80001ed4 <usertrap+0xac>

0000000080001f38 <kerneltrap>:
{
    80001f38:	7179                	addi	sp,sp,-48
    80001f3a:	f406                	sd	ra,40(sp)
    80001f3c:	f022                	sd	s0,32(sp)
    80001f3e:	ec26                	sd	s1,24(sp)
    80001f40:	e84a                	sd	s2,16(sp)
    80001f42:	e44e                	sd	s3,8(sp)
    80001f44:	1800                	addi	s0,sp,48
    asm volatile("csrr %0, sepc" : "=r"(x));
    80001f46:	14102973          	csrr	s2,sepc
    asm volatile("csrr %0, sstatus" : "=r"(x));
    80001f4a:	100024f3          	csrr	s1,sstatus
    asm volatile("csrr %0, scause" : "=r"(x));
    80001f4e:	142029f3          	csrr	s3,scause
  if((sstatus & SSTATUS_SPP) == 0)
    80001f52:	1004f793          	andi	a5,s1,256
    80001f56:	cb85                	beqz	a5,80001f86 <kerneltrap+0x4e>
    asm volatile("csrr %0, sstatus" : "=r"(x));
    80001f58:	100027f3          	csrr	a5,sstatus
    return (x & SSTATUS_SIE) != 0;
    80001f5c:	8b89                	andi	a5,a5,2
  if(intr_get() != 0)
    80001f5e:	ef85                	bnez	a5,80001f96 <kerneltrap+0x5e>
  if((which_dev = devintr()) == 0){
    80001f60:	00000097          	auipc	ra,0x0
    80001f64:	e26080e7          	jalr	-474(ra) # 80001d86 <devintr>
    80001f68:	cd1d                	beqz	a0,80001fa6 <kerneltrap+0x6e>
  if(which_dev == 2 && myproc() != 0 && myproc()->state == RUNNING)
    80001f6a:	4789                	li	a5,2
    80001f6c:	06f50a63          	beq	a0,a5,80001fe0 <kerneltrap+0xa8>
    asm volatile("csrw sepc, %0" : : "r"(x));
    80001f70:	14191073          	csrw	sepc,s2
    asm volatile("csrw sstatus, %0" : : "r"(x));
    80001f74:	10049073          	csrw	sstatus,s1
}
    80001f78:	70a2                	ld	ra,40(sp)
    80001f7a:	7402                	ld	s0,32(sp)
    80001f7c:	64e2                	ld	s1,24(sp)
    80001f7e:	6942                	ld	s2,16(sp)
    80001f80:	69a2                	ld	s3,8(sp)
    80001f82:	6145                	addi	sp,sp,48
    80001f84:	8082                	ret
    panic("kerneltrap: not from supervisor mode");
    80001f86:	00006517          	auipc	a0,0x6
    80001f8a:	3aa50513          	addi	a0,a0,938 # 80008330 <states.0+0xc8>
    80001f8e:	00004097          	auipc	ra,0x4
    80001f92:	eae080e7          	jalr	-338(ra) # 80005e3c <panic>
    panic("kerneltrap: interrupts enabled");
    80001f96:	00006517          	auipc	a0,0x6
    80001f9a:	3c250513          	addi	a0,a0,962 # 80008358 <states.0+0xf0>
    80001f9e:	00004097          	auipc	ra,0x4
    80001fa2:	e9e080e7          	jalr	-354(ra) # 80005e3c <panic>
    printf("scause %p\n", scause);
    80001fa6:	85ce                	mv	a1,s3
    80001fa8:	00006517          	auipc	a0,0x6
    80001fac:	3d050513          	addi	a0,a0,976 # 80008378 <states.0+0x110>
    80001fb0:	00004097          	auipc	ra,0x4
    80001fb4:	ed6080e7          	jalr	-298(ra) # 80005e86 <printf>
    asm volatile("csrr %0, sepc" : "=r"(x));
    80001fb8:	141025f3          	csrr	a1,sepc
    asm volatile("csrr %0, stval" : "=r"(x));
    80001fbc:	14302673          	csrr	a2,stval
    printf("sepc=%p stval=%p\n", r_sepc(), r_stval());
    80001fc0:	00006517          	auipc	a0,0x6
    80001fc4:	3c850513          	addi	a0,a0,968 # 80008388 <states.0+0x120>
    80001fc8:	00004097          	auipc	ra,0x4
    80001fcc:	ebe080e7          	jalr	-322(ra) # 80005e86 <printf>
    panic("kerneltrap");
    80001fd0:	00006517          	auipc	a0,0x6
    80001fd4:	3d050513          	addi	a0,a0,976 # 800083a0 <states.0+0x138>
    80001fd8:	00004097          	auipc	ra,0x4
    80001fdc:	e64080e7          	jalr	-412(ra) # 80005e3c <panic>
  if(which_dev == 2 && myproc() != 0 && myproc()->state == RUNNING)
    80001fe0:	fffff097          	auipc	ra,0xfffff
    80001fe4:	f58080e7          	jalr	-168(ra) # 80000f38 <myproc>
    80001fe8:	d541                	beqz	a0,80001f70 <kerneltrap+0x38>
    80001fea:	fffff097          	auipc	ra,0xfffff
    80001fee:	f4e080e7          	jalr	-178(ra) # 80000f38 <myproc>
    80001ff2:	4d18                	lw	a4,24(a0)
    80001ff4:	4791                	li	a5,4
    80001ff6:	f6f71de3          	bne	a4,a5,80001f70 <kerneltrap+0x38>
    yield();
    80001ffa:	fffff097          	auipc	ra,0xfffff
    80001ffe:	666080e7          	jalr	1638(ra) # 80001660 <yield>
    80002002:	b7bd                	j	80001f70 <kerneltrap+0x38>

0000000080002004 <argraw>:
  return strlen(buf);
}

static uint64
argraw(int n)
{
    80002004:	1101                	addi	sp,sp,-32
    80002006:	ec06                	sd	ra,24(sp)
    80002008:	e822                	sd	s0,16(sp)
    8000200a:	e426                	sd	s1,8(sp)
    8000200c:	1000                	addi	s0,sp,32
    8000200e:	84aa                	mv	s1,a0
  struct proc *p = myproc();
    80002010:	fffff097          	auipc	ra,0xfffff
    80002014:	f28080e7          	jalr	-216(ra) # 80000f38 <myproc>
  switch (n) {
    80002018:	4795                	li	a5,5
    8000201a:	0497e163          	bltu	a5,s1,8000205c <argraw+0x58>
    8000201e:	048a                	slli	s1,s1,0x2
    80002020:	00006717          	auipc	a4,0x6
    80002024:	3b870713          	addi	a4,a4,952 # 800083d8 <states.0+0x170>
    80002028:	94ba                	add	s1,s1,a4
    8000202a:	409c                	lw	a5,0(s1)
    8000202c:	97ba                	add	a5,a5,a4
    8000202e:	8782                	jr	a5
  case 0:
    return p->trapframe->a0;
    80002030:	6d3c                	ld	a5,88(a0)
    80002032:	7ba8                	ld	a0,112(a5)
  case 5:
    return p->trapframe->a5;
  }
  panic("argraw");
  return -1;
}
    80002034:	60e2                	ld	ra,24(sp)
    80002036:	6442                	ld	s0,16(sp)
    80002038:	64a2                	ld	s1,8(sp)
    8000203a:	6105                	addi	sp,sp,32
    8000203c:	8082                	ret
    return p->trapframe->a1;
    8000203e:	6d3c                	ld	a5,88(a0)
    80002040:	7fa8                	ld	a0,120(a5)
    80002042:	bfcd                	j	80002034 <argraw+0x30>
    return p->trapframe->a2;
    80002044:	6d3c                	ld	a5,88(a0)
    80002046:	63c8                	ld	a0,128(a5)
    80002048:	b7f5                	j	80002034 <argraw+0x30>
    return p->trapframe->a3;
    8000204a:	6d3c                	ld	a5,88(a0)
    8000204c:	67c8                	ld	a0,136(a5)
    8000204e:	b7dd                	j	80002034 <argraw+0x30>
    return p->trapframe->a4;
    80002050:	6d3c                	ld	a5,88(a0)
    80002052:	6bc8                	ld	a0,144(a5)
    80002054:	b7c5                	j	80002034 <argraw+0x30>
    return p->trapframe->a5;
    80002056:	6d3c                	ld	a5,88(a0)
    80002058:	6fc8                	ld	a0,152(a5)
    8000205a:	bfe9                	j	80002034 <argraw+0x30>
  panic("argraw");
    8000205c:	00006517          	auipc	a0,0x6
    80002060:	35450513          	addi	a0,a0,852 # 800083b0 <states.0+0x148>
    80002064:	00004097          	auipc	ra,0x4
    80002068:	dd8080e7          	jalr	-552(ra) # 80005e3c <panic>

000000008000206c <fetchaddr>:
{
    8000206c:	1101                	addi	sp,sp,-32
    8000206e:	ec06                	sd	ra,24(sp)
    80002070:	e822                	sd	s0,16(sp)
    80002072:	e426                	sd	s1,8(sp)
    80002074:	e04a                	sd	s2,0(sp)
    80002076:	1000                	addi	s0,sp,32
    80002078:	84aa                	mv	s1,a0
    8000207a:	892e                	mv	s2,a1
  struct proc *p = myproc();
    8000207c:	fffff097          	auipc	ra,0xfffff
    80002080:	ebc080e7          	jalr	-324(ra) # 80000f38 <myproc>
  if(addr >= p->sz || addr+sizeof(uint64) > p->sz) // both tests needed, in case of overflow
    80002084:	653c                	ld	a5,72(a0)
    80002086:	02f4f863          	bgeu	s1,a5,800020b6 <fetchaddr+0x4a>
    8000208a:	00848713          	addi	a4,s1,8
    8000208e:	02e7e663          	bltu	a5,a4,800020ba <fetchaddr+0x4e>
  if(copyin(p->pagetable, (char *)ip, addr, sizeof(*ip)) != 0)
    80002092:	46a1                	li	a3,8
    80002094:	8626                	mv	a2,s1
    80002096:	85ca                	mv	a1,s2
    80002098:	6928                	ld	a0,80(a0)
    8000209a:	fffff097          	auipc	ra,0xfffff
    8000209e:	b06080e7          	jalr	-1274(ra) # 80000ba0 <copyin>
    800020a2:	00a03533          	snez	a0,a0
    800020a6:	40a00533          	neg	a0,a0
}
    800020aa:	60e2                	ld	ra,24(sp)
    800020ac:	6442                	ld	s0,16(sp)
    800020ae:	64a2                	ld	s1,8(sp)
    800020b0:	6902                	ld	s2,0(sp)
    800020b2:	6105                	addi	sp,sp,32
    800020b4:	8082                	ret
    return -1;
    800020b6:	557d                	li	a0,-1
    800020b8:	bfcd                	j	800020aa <fetchaddr+0x3e>
    800020ba:	557d                	li	a0,-1
    800020bc:	b7fd                	j	800020aa <fetchaddr+0x3e>

00000000800020be <fetchstr>:
{
    800020be:	7179                	addi	sp,sp,-48
    800020c0:	f406                	sd	ra,40(sp)
    800020c2:	f022                	sd	s0,32(sp)
    800020c4:	ec26                	sd	s1,24(sp)
    800020c6:	e84a                	sd	s2,16(sp)
    800020c8:	e44e                	sd	s3,8(sp)
    800020ca:	1800                	addi	s0,sp,48
    800020cc:	892a                	mv	s2,a0
    800020ce:	84ae                	mv	s1,a1
    800020d0:	89b2                	mv	s3,a2
  struct proc *p = myproc();
    800020d2:	fffff097          	auipc	ra,0xfffff
    800020d6:	e66080e7          	jalr	-410(ra) # 80000f38 <myproc>
  if(copyinstr(p->pagetable, buf, addr, max) < 0)
    800020da:	86ce                	mv	a3,s3
    800020dc:	864a                	mv	a2,s2
    800020de:	85a6                	mv	a1,s1
    800020e0:	6928                	ld	a0,80(a0)
    800020e2:	fffff097          	auipc	ra,0xfffff
    800020e6:	b4c080e7          	jalr	-1204(ra) # 80000c2e <copyinstr>
    800020ea:	00054e63          	bltz	a0,80002106 <fetchstr+0x48>
  return strlen(buf);
    800020ee:	8526                	mv	a0,s1
    800020f0:	ffffe097          	auipc	ra,0xffffe
    800020f4:	206080e7          	jalr	518(ra) # 800002f6 <strlen>
}
    800020f8:	70a2                	ld	ra,40(sp)
    800020fa:	7402                	ld	s0,32(sp)
    800020fc:	64e2                	ld	s1,24(sp)
    800020fe:	6942                	ld	s2,16(sp)
    80002100:	69a2                	ld	s3,8(sp)
    80002102:	6145                	addi	sp,sp,48
    80002104:	8082                	ret
    return -1;
    80002106:	557d                	li	a0,-1
    80002108:	bfc5                	j	800020f8 <fetchstr+0x3a>

000000008000210a <argint>:

// Fetch the nth 32-bit system call argument.
void
argint(int n, int *ip)
{
    8000210a:	1101                	addi	sp,sp,-32
    8000210c:	ec06                	sd	ra,24(sp)
    8000210e:	e822                	sd	s0,16(sp)
    80002110:	e426                	sd	s1,8(sp)
    80002112:	1000                	addi	s0,sp,32
    80002114:	84ae                	mv	s1,a1
  *ip = argraw(n);
    80002116:	00000097          	auipc	ra,0x0
    8000211a:	eee080e7          	jalr	-274(ra) # 80002004 <argraw>
    8000211e:	c088                	sw	a0,0(s1)
}
    80002120:	60e2                	ld	ra,24(sp)
    80002122:	6442                	ld	s0,16(sp)
    80002124:	64a2                	ld	s1,8(sp)
    80002126:	6105                	addi	sp,sp,32
    80002128:	8082                	ret

000000008000212a <argaddr>:
// Retrieve an argument as a pointer.
// Doesn't check for legality, since
// copyin/copyout will do that.
void
argaddr(int n, uint64 *ip)
{
    8000212a:	1101                	addi	sp,sp,-32
    8000212c:	ec06                	sd	ra,24(sp)
    8000212e:	e822                	sd	s0,16(sp)
    80002130:	e426                	sd	s1,8(sp)
    80002132:	1000                	addi	s0,sp,32
    80002134:	84ae                	mv	s1,a1
  *ip = argraw(n);
    80002136:	00000097          	auipc	ra,0x0
    8000213a:	ece080e7          	jalr	-306(ra) # 80002004 <argraw>
    8000213e:	e088                	sd	a0,0(s1)
}
    80002140:	60e2                	ld	ra,24(sp)
    80002142:	6442                	ld	s0,16(sp)
    80002144:	64a2                	ld	s1,8(sp)
    80002146:	6105                	addi	sp,sp,32
    80002148:	8082                	ret

000000008000214a <argstr>:
// Fetch the nth word-sized system call argument as a null-terminated string.
// Copies into buf, at most max.
// Returns string length if OK (including nul), -1 if error.
int
argstr(int n, char *buf, int max)
{
    8000214a:	7179                	addi	sp,sp,-48
    8000214c:	f406                	sd	ra,40(sp)
    8000214e:	f022                	sd	s0,32(sp)
    80002150:	ec26                	sd	s1,24(sp)
    80002152:	e84a                	sd	s2,16(sp)
    80002154:	1800                	addi	s0,sp,48
    80002156:	84ae                	mv	s1,a1
    80002158:	8932                	mv	s2,a2
  uint64 addr;
  argaddr(n, &addr);
    8000215a:	fd840593          	addi	a1,s0,-40
    8000215e:	00000097          	auipc	ra,0x0
    80002162:	fcc080e7          	jalr	-52(ra) # 8000212a <argaddr>
  return fetchstr(addr, buf, max);
    80002166:	864a                	mv	a2,s2
    80002168:	85a6                	mv	a1,s1
    8000216a:	fd843503          	ld	a0,-40(s0)
    8000216e:	00000097          	auipc	ra,0x0
    80002172:	f50080e7          	jalr	-176(ra) # 800020be <fetchstr>
}
    80002176:	70a2                	ld	ra,40(sp)
    80002178:	7402                	ld	s0,32(sp)
    8000217a:	64e2                	ld	s1,24(sp)
    8000217c:	6942                	ld	s2,16(sp)
    8000217e:	6145                	addi	sp,sp,48
    80002180:	8082                	ret

0000000080002182 <syscall>:



void
syscall(void)
{
    80002182:	1101                	addi	sp,sp,-32
    80002184:	ec06                	sd	ra,24(sp)
    80002186:	e822                	sd	s0,16(sp)
    80002188:	e426                	sd	s1,8(sp)
    8000218a:	e04a                	sd	s2,0(sp)
    8000218c:	1000                	addi	s0,sp,32
  int num;
  struct proc *p = myproc();
    8000218e:	fffff097          	auipc	ra,0xfffff
    80002192:	daa080e7          	jalr	-598(ra) # 80000f38 <myproc>
    80002196:	84aa                	mv	s1,a0

  num = p->trapframe->a7;
    80002198:	05853903          	ld	s2,88(a0)
    8000219c:	0a893783          	ld	a5,168(s2)
    800021a0:	0007869b          	sext.w	a3,a5
  if(num > 0 && num < NELEM(syscalls) && syscalls[num]) {
    800021a4:	37fd                	addiw	a5,a5,-1
    800021a6:	4775                	li	a4,29
    800021a8:	00f76f63          	bltu	a4,a5,800021c6 <syscall+0x44>
    800021ac:	00369713          	slli	a4,a3,0x3
    800021b0:	00006797          	auipc	a5,0x6
    800021b4:	24078793          	addi	a5,a5,576 # 800083f0 <syscalls>
    800021b8:	97ba                	add	a5,a5,a4
    800021ba:	639c                	ld	a5,0(a5)
    800021bc:	c789                	beqz	a5,800021c6 <syscall+0x44>
    // Use num to lookup the system call function for num, call it,
    // and store its return value in p->trapframe->a0
    p->trapframe->a0 = syscalls[num]();
    800021be:	9782                	jalr	a5
    800021c0:	06a93823          	sd	a0,112(s2)
    800021c4:	a839                	j	800021e2 <syscall+0x60>
  } else {
    printf("%d %s: unknown sys call %d\n",
    800021c6:	15848613          	addi	a2,s1,344
    800021ca:	588c                	lw	a1,48(s1)
    800021cc:	00006517          	auipc	a0,0x6
    800021d0:	1ec50513          	addi	a0,a0,492 # 800083b8 <states.0+0x150>
    800021d4:	00004097          	auipc	ra,0x4
    800021d8:	cb2080e7          	jalr	-846(ra) # 80005e86 <printf>
            p->pid, p->name, num);
    p->trapframe->a0 = -1;
    800021dc:	6cbc                	ld	a5,88(s1)
    800021de:	577d                	li	a4,-1
    800021e0:	fbb8                	sd	a4,112(a5)
  }
}
    800021e2:	60e2                	ld	ra,24(sp)
    800021e4:	6442                	ld	s0,16(sp)
    800021e6:	64a2                	ld	s1,8(sp)
    800021e8:	6902                	ld	s2,0(sp)
    800021ea:	6105                	addi	sp,sp,32
    800021ec:	8082                	ret

00000000800021ee <sys_exit>:
#include "memlayout.h"
#include "spinlock.h"
#include "proc.h"

uint64 sys_exit(void)
{
    800021ee:	1101                	addi	sp,sp,-32
    800021f0:	ec06                	sd	ra,24(sp)
    800021f2:	e822                	sd	s0,16(sp)
    800021f4:	1000                	addi	s0,sp,32
    int n;
    argint(0, &n);
    800021f6:	fec40593          	addi	a1,s0,-20
    800021fa:	4501                	li	a0,0
    800021fc:	00000097          	auipc	ra,0x0
    80002200:	f0e080e7          	jalr	-242(ra) # 8000210a <argint>
    exit(n);
    80002204:	fec42503          	lw	a0,-20(s0)
    80002208:	fffff097          	auipc	ra,0xfffff
    8000220c:	5c8080e7          	jalr	1480(ra) # 800017d0 <exit>
    return 0; // not reached
}
    80002210:	4501                	li	a0,0
    80002212:	60e2                	ld	ra,24(sp)
    80002214:	6442                	ld	s0,16(sp)
    80002216:	6105                	addi	sp,sp,32
    80002218:	8082                	ret

000000008000221a <sys_getpid>:

uint64 sys_getpid(void)
{
    8000221a:	1141                	addi	sp,sp,-16
    8000221c:	e406                	sd	ra,8(sp)
    8000221e:	e022                	sd	s0,0(sp)
    80002220:	0800                	addi	s0,sp,16
    return myproc()->pid;
    80002222:	fffff097          	auipc	ra,0xfffff
    80002226:	d16080e7          	jalr	-746(ra) # 80000f38 <myproc>
}
    8000222a:	5908                	lw	a0,48(a0)
    8000222c:	60a2                	ld	ra,8(sp)
    8000222e:	6402                	ld	s0,0(sp)
    80002230:	0141                	addi	sp,sp,16
    80002232:	8082                	ret

0000000080002234 <sys_fork>:

uint64 sys_fork(void)
{
    80002234:	1141                	addi	sp,sp,-16
    80002236:	e406                	sd	ra,8(sp)
    80002238:	e022                	sd	s0,0(sp)
    8000223a:	0800                	addi	s0,sp,16
    return fork();
    8000223c:	fffff097          	auipc	ra,0xfffff
    80002240:	16e080e7          	jalr	366(ra) # 800013aa <fork>
}
    80002244:	60a2                	ld	ra,8(sp)
    80002246:	6402                	ld	s0,0(sp)
    80002248:	0141                	addi	sp,sp,16
    8000224a:	8082                	ret

000000008000224c <sys_wait>:

uint64 sys_wait(void)
{
    8000224c:	1101                	addi	sp,sp,-32
    8000224e:	ec06                	sd	ra,24(sp)
    80002250:	e822                	sd	s0,16(sp)
    80002252:	1000                	addi	s0,sp,32
    uint64 p;
    argaddr(0, &p);
    80002254:	fe840593          	addi	a1,s0,-24
    80002258:	4501                	li	a0,0
    8000225a:	00000097          	auipc	ra,0x0
    8000225e:	ed0080e7          	jalr	-304(ra) # 8000212a <argaddr>
    return wait(p);
    80002262:	fe843503          	ld	a0,-24(s0)
    80002266:	fffff097          	auipc	ra,0xfffff
    8000226a:	710080e7          	jalr	1808(ra) # 80001976 <wait>
}
    8000226e:	60e2                	ld	ra,24(sp)
    80002270:	6442                	ld	s0,16(sp)
    80002272:	6105                	addi	sp,sp,32
    80002274:	8082                	ret

0000000080002276 <sys_sbrk>:

uint64 sys_sbrk(void)
{
    80002276:	7179                	addi	sp,sp,-48
    80002278:	f406                	sd	ra,40(sp)
    8000227a:	f022                	sd	s0,32(sp)
    8000227c:	ec26                	sd	s1,24(sp)
    8000227e:	1800                	addi	s0,sp,48
    uint64 addr;
    int n;

    argint(0, &n);
    80002280:	fdc40593          	addi	a1,s0,-36
    80002284:	4501                	li	a0,0
    80002286:	00000097          	auipc	ra,0x0
    8000228a:	e84080e7          	jalr	-380(ra) # 8000210a <argint>
    addr = myproc()->sz;
    8000228e:	fffff097          	auipc	ra,0xfffff
    80002292:	caa080e7          	jalr	-854(ra) # 80000f38 <myproc>
    80002296:	6524                	ld	s1,72(a0)
    if (growproc(n) < 0)
    80002298:	fdc42503          	lw	a0,-36(s0)
    8000229c:	fffff097          	auipc	ra,0xfffff
    800022a0:	0b2080e7          	jalr	178(ra) # 8000134e <growproc>
    800022a4:	00054863          	bltz	a0,800022b4 <sys_sbrk+0x3e>
        return -1;
    return addr;
}
    800022a8:	8526                	mv	a0,s1
    800022aa:	70a2                	ld	ra,40(sp)
    800022ac:	7402                	ld	s0,32(sp)
    800022ae:	64e2                	ld	s1,24(sp)
    800022b0:	6145                	addi	sp,sp,48
    800022b2:	8082                	ret
        return -1;
    800022b4:	54fd                	li	s1,-1
    800022b6:	bfcd                	j	800022a8 <sys_sbrk+0x32>

00000000800022b8 <sys_sleep>:

uint64 sys_sleep(void)
{
    800022b8:	7139                	addi	sp,sp,-64
    800022ba:	fc06                	sd	ra,56(sp)
    800022bc:	f822                	sd	s0,48(sp)
    800022be:	f426                	sd	s1,40(sp)
    800022c0:	f04a                	sd	s2,32(sp)
    800022c2:	ec4e                	sd	s3,24(sp)
    800022c4:	0080                	addi	s0,sp,64
    int n;
    uint ticks0;

    argint(0, &n);
    800022c6:	fcc40593          	addi	a1,s0,-52
    800022ca:	4501                	li	a0,0
    800022cc:	00000097          	auipc	ra,0x0
    800022d0:	e3e080e7          	jalr	-450(ra) # 8000210a <argint>
    acquire(&tickslock);
    800022d4:	0000c517          	auipc	a0,0xc
    800022d8:	6cc50513          	addi	a0,a0,1740 # 8000e9a0 <tickslock>
    800022dc:	00004097          	auipc	ra,0x4
    800022e0:	098080e7          	jalr	152(ra) # 80006374 <acquire>
    ticks0 = ticks;
    800022e4:	00006917          	auipc	s2,0x6
    800022e8:	65492903          	lw	s2,1620(s2) # 80008938 <ticks>
    while (ticks - ticks0 < n) {
    800022ec:	fcc42783          	lw	a5,-52(s0)
    800022f0:	cf9d                	beqz	a5,8000232e <sys_sleep+0x76>
        if (killed(myproc())) {
            release(&tickslock);
            return -1;
        }
        sleep(&ticks, &tickslock);
    800022f2:	0000c997          	auipc	s3,0xc
    800022f6:	6ae98993          	addi	s3,s3,1710 # 8000e9a0 <tickslock>
    800022fa:	00006497          	auipc	s1,0x6
    800022fe:	63e48493          	addi	s1,s1,1598 # 80008938 <ticks>
        if (killed(myproc())) {
    80002302:	fffff097          	auipc	ra,0xfffff
    80002306:	c36080e7          	jalr	-970(ra) # 80000f38 <myproc>
    8000230a:	fffff097          	auipc	ra,0xfffff
    8000230e:	63a080e7          	jalr	1594(ra) # 80001944 <killed>
    80002312:	ed15                	bnez	a0,8000234e <sys_sleep+0x96>
        sleep(&ticks, &tickslock);
    80002314:	85ce                	mv	a1,s3
    80002316:	8526                	mv	a0,s1
    80002318:	fffff097          	auipc	ra,0xfffff
    8000231c:	384080e7          	jalr	900(ra) # 8000169c <sleep>
    while (ticks - ticks0 < n) {
    80002320:	409c                	lw	a5,0(s1)
    80002322:	412787bb          	subw	a5,a5,s2
    80002326:	fcc42703          	lw	a4,-52(s0)
    8000232a:	fce7ece3          	bltu	a5,a4,80002302 <sys_sleep+0x4a>
    }
    release(&tickslock);
    8000232e:	0000c517          	auipc	a0,0xc
    80002332:	67250513          	addi	a0,a0,1650 # 8000e9a0 <tickslock>
    80002336:	00004097          	auipc	ra,0x4
    8000233a:	0f2080e7          	jalr	242(ra) # 80006428 <release>
    return 0;
    8000233e:	4501                	li	a0,0
}
    80002340:	70e2                	ld	ra,56(sp)
    80002342:	7442                	ld	s0,48(sp)
    80002344:	74a2                	ld	s1,40(sp)
    80002346:	7902                	ld	s2,32(sp)
    80002348:	69e2                	ld	s3,24(sp)
    8000234a:	6121                	addi	sp,sp,64
    8000234c:	8082                	ret
            release(&tickslock);
    8000234e:	0000c517          	auipc	a0,0xc
    80002352:	65250513          	addi	a0,a0,1618 # 8000e9a0 <tickslock>
    80002356:	00004097          	auipc	ra,0x4
    8000235a:	0d2080e7          	jalr	210(ra) # 80006428 <release>
            return -1;
    8000235e:	557d                	li	a0,-1
    80002360:	b7c5                	j	80002340 <sys_sleep+0x88>

0000000080002362 <sys_pgaccess>:

#ifdef LAB_PGTBL
#define PGACCESS_MAX_PAGE 32
int sys_pgaccess(void)
{
    80002362:	711d                	addi	sp,sp,-96
    80002364:	ec86                	sd	ra,88(sp)
    80002366:	e8a2                	sd	s0,80(sp)
    80002368:	e4a6                	sd	s1,72(sp)
    8000236a:	e0ca                	sd	s2,64(sp)
    8000236c:	fc4e                	sd	s3,56(sp)
    8000236e:	f852                	sd	s4,48(sp)
    80002370:	f456                	sd	s5,40(sp)
    80002372:	1080                	addi	s0,sp,96
    // lab pgtbl: your code here.
    uint64 va, buf;
    int pgnum;
    argaddr(0, &va);
    80002374:	fb840593          	addi	a1,s0,-72
    80002378:	4501                	li	a0,0
    8000237a:	00000097          	auipc	ra,0x0
    8000237e:	db0080e7          	jalr	-592(ra) # 8000212a <argaddr>
    argint(1, &pgnum);
    80002382:	fac40593          	addi	a1,s0,-84
    80002386:	4505                	li	a0,1
    80002388:	00000097          	auipc	ra,0x0
    8000238c:	d82080e7          	jalr	-638(ra) # 8000210a <argint>
    argaddr(2, &buf);
    80002390:	fb040593          	addi	a1,s0,-80
    80002394:	4509                	li	a0,2
    80002396:	00000097          	auipc	ra,0x0
    8000239a:	d94080e7          	jalr	-620(ra) # 8000212a <argaddr>

    if (pgnum > PGACCESS_MAX_PAGE)
    8000239e:	fac42703          	lw	a4,-84(s0)
    800023a2:	02000793          	li	a5,32
    800023a6:	00e7d463          	bge	a5,a4,800023ae <sys_pgaccess+0x4c>
        pgnum = PGACCESS_MAX_PAGE;
    800023aa:	faf42623          	sw	a5,-84(s0)

    struct proc *p = myproc();
    800023ae:	fffff097          	auipc	ra,0xfffff
    800023b2:	b8a080e7          	jalr	-1142(ra) # 80000f38 <myproc>
    800023b6:	8a2a                	mv	s4,a0
    if (!p) {
    800023b8:	c559                	beqz	a0,80002446 <sys_pgaccess+0xe4>
        return -1;
    }

    pagetable_t pgtbl = p->pagetable;
    800023ba:	05053983          	ld	s3,80(a0)
    if (!pgtbl) {
    800023be:	08098663          	beqz	s3,8000244a <sys_pgaccess+0xe8>
        return -1;
    }

    uint64 mask = 0;
    800023c2:	fa043023          	sd	zero,-96(s0)
    for (int i = 0; i < pgnum; i++) {
    800023c6:	fac42783          	lw	a5,-84(s0)
    800023ca:	04f05963          	blez	a5,8000241c <sys_pgaccess+0xba>
    800023ce:	4481                	li	s1,0
        pte_t *pte = walk(pgtbl, va + i * PGSIZE, 0);
        if (*pte & PTE_A) {
            *pte &= (~PTE_A); // 复位
            mask |= (1 << i); // 标注第i个页是否被访问过
    800023d0:	4a85                	li	s5,1
    800023d2:	a801                	j	800023e2 <sys_pgaccess+0x80>
    for (int i = 0; i < pgnum; i++) {
    800023d4:	0485                	addi	s1,s1,1
    800023d6:	fac42703          	lw	a4,-84(s0)
    800023da:	0004879b          	sext.w	a5,s1
    800023de:	02e7df63          	bge	a5,a4,8000241c <sys_pgaccess+0xba>
    800023e2:	0004891b          	sext.w	s2,s1
        pte_t *pte = walk(pgtbl, va + i * PGSIZE, 0);
    800023e6:	00c49593          	slli	a1,s1,0xc
    800023ea:	4601                	li	a2,0
    800023ec:	fb843783          	ld	a5,-72(s0)
    800023f0:	95be                	add	a1,a1,a5
    800023f2:	854e                	mv	a0,s3
    800023f4:	ffffe097          	auipc	ra,0xffffe
    800023f8:	06a080e7          	jalr	106(ra) # 8000045e <walk>
        if (*pte & PTE_A) {
    800023fc:	611c                	ld	a5,0(a0)
    800023fe:	0407f713          	andi	a4,a5,64
    80002402:	db69                	beqz	a4,800023d4 <sys_pgaccess+0x72>
            *pte &= (~PTE_A); // 复位
    80002404:	fbf7f793          	andi	a5,a5,-65
    80002408:	e11c                	sd	a5,0(a0)
            mask |= (1 << i); // 标注第i个页是否被访问过
    8000240a:	012a993b          	sllw	s2,s5,s2
    8000240e:	fa043783          	ld	a5,-96(s0)
    80002412:	0127e7b3          	or	a5,a5,s2
    80002416:	faf43023          	sd	a5,-96(s0)
    8000241a:	bf6d                	j	800023d4 <sys_pgaccess+0x72>
        }
    }

    copyout(p->pagetable, buf, (char *)&mask, sizeof(mask));
    8000241c:	46a1                	li	a3,8
    8000241e:	fa040613          	addi	a2,s0,-96
    80002422:	fb043583          	ld	a1,-80(s0)
    80002426:	050a3503          	ld	a0,80(s4)
    8000242a:	ffffe097          	auipc	ra,0xffffe
    8000242e:	6ea080e7          	jalr	1770(ra) # 80000b14 <copyout>

    return 0;
    80002432:	4501                	li	a0,0
}
    80002434:	60e6                	ld	ra,88(sp)
    80002436:	6446                	ld	s0,80(sp)
    80002438:	64a6                	ld	s1,72(sp)
    8000243a:	6906                	ld	s2,64(sp)
    8000243c:	79e2                	ld	s3,56(sp)
    8000243e:	7a42                	ld	s4,48(sp)
    80002440:	7aa2                	ld	s5,40(sp)
    80002442:	6125                	addi	sp,sp,96
    80002444:	8082                	ret
        return -1;
    80002446:	557d                	li	a0,-1
    80002448:	b7f5                	j	80002434 <sys_pgaccess+0xd2>
        return -1;
    8000244a:	557d                	li	a0,-1
    8000244c:	b7e5                	j	80002434 <sys_pgaccess+0xd2>

000000008000244e <sys_kill>:
#endif

uint64 sys_kill(void)
{
    8000244e:	1101                	addi	sp,sp,-32
    80002450:	ec06                	sd	ra,24(sp)
    80002452:	e822                	sd	s0,16(sp)
    80002454:	1000                	addi	s0,sp,32
    int pid;

    argint(0, &pid);
    80002456:	fec40593          	addi	a1,s0,-20
    8000245a:	4501                	li	a0,0
    8000245c:	00000097          	auipc	ra,0x0
    80002460:	cae080e7          	jalr	-850(ra) # 8000210a <argint>
    return kill(pid);
    80002464:	fec42503          	lw	a0,-20(s0)
    80002468:	fffff097          	auipc	ra,0xfffff
    8000246c:	43e080e7          	jalr	1086(ra) # 800018a6 <kill>
}
    80002470:	60e2                	ld	ra,24(sp)
    80002472:	6442                	ld	s0,16(sp)
    80002474:	6105                	addi	sp,sp,32
    80002476:	8082                	ret

0000000080002478 <sys_uptime>:

// return how many clock tick interrupts have occurred
// since start.
uint64 sys_uptime(void)
{
    80002478:	1101                	addi	sp,sp,-32
    8000247a:	ec06                	sd	ra,24(sp)
    8000247c:	e822                	sd	s0,16(sp)
    8000247e:	e426                	sd	s1,8(sp)
    80002480:	1000                	addi	s0,sp,32
    uint xticks;

    acquire(&tickslock);
    80002482:	0000c517          	auipc	a0,0xc
    80002486:	51e50513          	addi	a0,a0,1310 # 8000e9a0 <tickslock>
    8000248a:	00004097          	auipc	ra,0x4
    8000248e:	eea080e7          	jalr	-278(ra) # 80006374 <acquire>
    xticks = ticks;
    80002492:	00006497          	auipc	s1,0x6
    80002496:	4a64a483          	lw	s1,1190(s1) # 80008938 <ticks>
    release(&tickslock);
    8000249a:	0000c517          	auipc	a0,0xc
    8000249e:	50650513          	addi	a0,a0,1286 # 8000e9a0 <tickslock>
    800024a2:	00004097          	auipc	ra,0x4
    800024a6:	f86080e7          	jalr	-122(ra) # 80006428 <release>
    return xticks;
}
    800024aa:	02049513          	slli	a0,s1,0x20
    800024ae:	9101                	srli	a0,a0,0x20
    800024b0:	60e2                	ld	ra,24(sp)
    800024b2:	6442                	ld	s0,16(sp)
    800024b4:	64a2                	ld	s1,8(sp)
    800024b6:	6105                	addi	sp,sp,32
    800024b8:	8082                	ret

00000000800024ba <binit>:
  struct buf head;
} bcache;

void
binit(void)
{
    800024ba:	7179                	addi	sp,sp,-48
    800024bc:	f406                	sd	ra,40(sp)
    800024be:	f022                	sd	s0,32(sp)
    800024c0:	ec26                	sd	s1,24(sp)
    800024c2:	e84a                	sd	s2,16(sp)
    800024c4:	e44e                	sd	s3,8(sp)
    800024c6:	e052                	sd	s4,0(sp)
    800024c8:	1800                	addi	s0,sp,48
  struct buf *b;

  initlock(&bcache.lock, "bcache");
    800024ca:	00006597          	auipc	a1,0x6
    800024ce:	01e58593          	addi	a1,a1,30 # 800084e8 <syscalls+0xf8>
    800024d2:	0000c517          	auipc	a0,0xc
    800024d6:	4e650513          	addi	a0,a0,1254 # 8000e9b8 <bcache>
    800024da:	00004097          	auipc	ra,0x4
    800024de:	e0a080e7          	jalr	-502(ra) # 800062e4 <initlock>

  // Create linked list of buffers
  bcache.head.prev = &bcache.head;
    800024e2:	00014797          	auipc	a5,0x14
    800024e6:	4d678793          	addi	a5,a5,1238 # 800169b8 <bcache+0x8000>
    800024ea:	00014717          	auipc	a4,0x14
    800024ee:	73670713          	addi	a4,a4,1846 # 80016c20 <bcache+0x8268>
    800024f2:	2ae7b823          	sd	a4,688(a5)
  bcache.head.next = &bcache.head;
    800024f6:	2ae7bc23          	sd	a4,696(a5)
  for(b = bcache.buf; b < bcache.buf+NBUF; b++){
    800024fa:	0000c497          	auipc	s1,0xc
    800024fe:	4d648493          	addi	s1,s1,1238 # 8000e9d0 <bcache+0x18>
    b->next = bcache.head.next;
    80002502:	893e                	mv	s2,a5
    b->prev = &bcache.head;
    80002504:	89ba                	mv	s3,a4
    initsleeplock(&b->lock, "buffer");
    80002506:	00006a17          	auipc	s4,0x6
    8000250a:	feaa0a13          	addi	s4,s4,-22 # 800084f0 <syscalls+0x100>
    b->next = bcache.head.next;
    8000250e:	2b893783          	ld	a5,696(s2)
    80002512:	e8bc                	sd	a5,80(s1)
    b->prev = &bcache.head;
    80002514:	0534b423          	sd	s3,72(s1)
    initsleeplock(&b->lock, "buffer");
    80002518:	85d2                	mv	a1,s4
    8000251a:	01048513          	addi	a0,s1,16
    8000251e:	00001097          	auipc	ra,0x1
    80002522:	4c8080e7          	jalr	1224(ra) # 800039e6 <initsleeplock>
    bcache.head.next->prev = b;
    80002526:	2b893783          	ld	a5,696(s2)
    8000252a:	e7a4                	sd	s1,72(a5)
    bcache.head.next = b;
    8000252c:	2a993c23          	sd	s1,696(s2)
  for(b = bcache.buf; b < bcache.buf+NBUF; b++){
    80002530:	45848493          	addi	s1,s1,1112
    80002534:	fd349de3          	bne	s1,s3,8000250e <binit+0x54>
  }
}
    80002538:	70a2                	ld	ra,40(sp)
    8000253a:	7402                	ld	s0,32(sp)
    8000253c:	64e2                	ld	s1,24(sp)
    8000253e:	6942                	ld	s2,16(sp)
    80002540:	69a2                	ld	s3,8(sp)
    80002542:	6a02                	ld	s4,0(sp)
    80002544:	6145                	addi	sp,sp,48
    80002546:	8082                	ret

0000000080002548 <bread>:
}

// Return a locked buf with the contents of the indicated block.
struct buf*
bread(uint dev, uint blockno)
{
    80002548:	7179                	addi	sp,sp,-48
    8000254a:	f406                	sd	ra,40(sp)
    8000254c:	f022                	sd	s0,32(sp)
    8000254e:	ec26                	sd	s1,24(sp)
    80002550:	e84a                	sd	s2,16(sp)
    80002552:	e44e                	sd	s3,8(sp)
    80002554:	1800                	addi	s0,sp,48
    80002556:	892a                	mv	s2,a0
    80002558:	89ae                	mv	s3,a1
  acquire(&bcache.lock);
    8000255a:	0000c517          	auipc	a0,0xc
    8000255e:	45e50513          	addi	a0,a0,1118 # 8000e9b8 <bcache>
    80002562:	00004097          	auipc	ra,0x4
    80002566:	e12080e7          	jalr	-494(ra) # 80006374 <acquire>
  for(b = bcache.head.next; b != &bcache.head; b = b->next){
    8000256a:	00014497          	auipc	s1,0x14
    8000256e:	7064b483          	ld	s1,1798(s1) # 80016c70 <bcache+0x82b8>
    80002572:	00014797          	auipc	a5,0x14
    80002576:	6ae78793          	addi	a5,a5,1710 # 80016c20 <bcache+0x8268>
    8000257a:	02f48f63          	beq	s1,a5,800025b8 <bread+0x70>
    8000257e:	873e                	mv	a4,a5
    80002580:	a021                	j	80002588 <bread+0x40>
    80002582:	68a4                	ld	s1,80(s1)
    80002584:	02e48a63          	beq	s1,a4,800025b8 <bread+0x70>
    if(b->dev == dev && b->blockno == blockno){
    80002588:	449c                	lw	a5,8(s1)
    8000258a:	ff279ce3          	bne	a5,s2,80002582 <bread+0x3a>
    8000258e:	44dc                	lw	a5,12(s1)
    80002590:	ff3799e3          	bne	a5,s3,80002582 <bread+0x3a>
      b->refcnt++;
    80002594:	40bc                	lw	a5,64(s1)
    80002596:	2785                	addiw	a5,a5,1
    80002598:	c0bc                	sw	a5,64(s1)
      release(&bcache.lock);
    8000259a:	0000c517          	auipc	a0,0xc
    8000259e:	41e50513          	addi	a0,a0,1054 # 8000e9b8 <bcache>
    800025a2:	00004097          	auipc	ra,0x4
    800025a6:	e86080e7          	jalr	-378(ra) # 80006428 <release>
      acquiresleep(&b->lock);
    800025aa:	01048513          	addi	a0,s1,16
    800025ae:	00001097          	auipc	ra,0x1
    800025b2:	472080e7          	jalr	1138(ra) # 80003a20 <acquiresleep>
      return b;
    800025b6:	a8b9                	j	80002614 <bread+0xcc>
  for(b = bcache.head.prev; b != &bcache.head; b = b->prev){
    800025b8:	00014497          	auipc	s1,0x14
    800025bc:	6b04b483          	ld	s1,1712(s1) # 80016c68 <bcache+0x82b0>
    800025c0:	00014797          	auipc	a5,0x14
    800025c4:	66078793          	addi	a5,a5,1632 # 80016c20 <bcache+0x8268>
    800025c8:	00f48863          	beq	s1,a5,800025d8 <bread+0x90>
    800025cc:	873e                	mv	a4,a5
    if(b->refcnt == 0) {
    800025ce:	40bc                	lw	a5,64(s1)
    800025d0:	cf81                	beqz	a5,800025e8 <bread+0xa0>
  for(b = bcache.head.prev; b != &bcache.head; b = b->prev){
    800025d2:	64a4                	ld	s1,72(s1)
    800025d4:	fee49de3          	bne	s1,a4,800025ce <bread+0x86>
  panic("bget: no buffers");
    800025d8:	00006517          	auipc	a0,0x6
    800025dc:	f2050513          	addi	a0,a0,-224 # 800084f8 <syscalls+0x108>
    800025e0:	00004097          	auipc	ra,0x4
    800025e4:	85c080e7          	jalr	-1956(ra) # 80005e3c <panic>
      b->dev = dev;
    800025e8:	0124a423          	sw	s2,8(s1)
      b->blockno = blockno;
    800025ec:	0134a623          	sw	s3,12(s1)
      b->valid = 0;
    800025f0:	0004a023          	sw	zero,0(s1)
      b->refcnt = 1;
    800025f4:	4785                	li	a5,1
    800025f6:	c0bc                	sw	a5,64(s1)
      release(&bcache.lock);
    800025f8:	0000c517          	auipc	a0,0xc
    800025fc:	3c050513          	addi	a0,a0,960 # 8000e9b8 <bcache>
    80002600:	00004097          	auipc	ra,0x4
    80002604:	e28080e7          	jalr	-472(ra) # 80006428 <release>
      acquiresleep(&b->lock);
    80002608:	01048513          	addi	a0,s1,16
    8000260c:	00001097          	auipc	ra,0x1
    80002610:	414080e7          	jalr	1044(ra) # 80003a20 <acquiresleep>
  struct buf *b;

  b = bget(dev, blockno);
  if(!b->valid) {
    80002614:	409c                	lw	a5,0(s1)
    80002616:	cb89                	beqz	a5,80002628 <bread+0xe0>
    virtio_disk_rw(b, 0);
    b->valid = 1;
  }
  return b;
}
    80002618:	8526                	mv	a0,s1
    8000261a:	70a2                	ld	ra,40(sp)
    8000261c:	7402                	ld	s0,32(sp)
    8000261e:	64e2                	ld	s1,24(sp)
    80002620:	6942                	ld	s2,16(sp)
    80002622:	69a2                	ld	s3,8(sp)
    80002624:	6145                	addi	sp,sp,48
    80002626:	8082                	ret
    virtio_disk_rw(b, 0);
    80002628:	4581                	li	a1,0
    8000262a:	8526                	mv	a0,s1
    8000262c:	00003097          	auipc	ra,0x3
    80002630:	006080e7          	jalr	6(ra) # 80005632 <virtio_disk_rw>
    b->valid = 1;
    80002634:	4785                	li	a5,1
    80002636:	c09c                	sw	a5,0(s1)
  return b;
    80002638:	b7c5                	j	80002618 <bread+0xd0>

000000008000263a <bwrite>:

// Write b's contents to disk.  Must be locked.
void
bwrite(struct buf *b)
{
    8000263a:	1101                	addi	sp,sp,-32
    8000263c:	ec06                	sd	ra,24(sp)
    8000263e:	e822                	sd	s0,16(sp)
    80002640:	e426                	sd	s1,8(sp)
    80002642:	1000                	addi	s0,sp,32
    80002644:	84aa                	mv	s1,a0
  if(!holdingsleep(&b->lock))
    80002646:	0541                	addi	a0,a0,16
    80002648:	00001097          	auipc	ra,0x1
    8000264c:	472080e7          	jalr	1138(ra) # 80003aba <holdingsleep>
    80002650:	cd01                	beqz	a0,80002668 <bwrite+0x2e>
    panic("bwrite");
  virtio_disk_rw(b, 1);
    80002652:	4585                	li	a1,1
    80002654:	8526                	mv	a0,s1
    80002656:	00003097          	auipc	ra,0x3
    8000265a:	fdc080e7          	jalr	-36(ra) # 80005632 <virtio_disk_rw>
}
    8000265e:	60e2                	ld	ra,24(sp)
    80002660:	6442                	ld	s0,16(sp)
    80002662:	64a2                	ld	s1,8(sp)
    80002664:	6105                	addi	sp,sp,32
    80002666:	8082                	ret
    panic("bwrite");
    80002668:	00006517          	auipc	a0,0x6
    8000266c:	ea850513          	addi	a0,a0,-344 # 80008510 <syscalls+0x120>
    80002670:	00003097          	auipc	ra,0x3
    80002674:	7cc080e7          	jalr	1996(ra) # 80005e3c <panic>

0000000080002678 <brelse>:

// Release a locked buffer.
// Move to the head of the most-recently-used list.
void
brelse(struct buf *b)
{
    80002678:	1101                	addi	sp,sp,-32
    8000267a:	ec06                	sd	ra,24(sp)
    8000267c:	e822                	sd	s0,16(sp)
    8000267e:	e426                	sd	s1,8(sp)
    80002680:	e04a                	sd	s2,0(sp)
    80002682:	1000                	addi	s0,sp,32
    80002684:	84aa                	mv	s1,a0
  if(!holdingsleep(&b->lock))
    80002686:	01050913          	addi	s2,a0,16
    8000268a:	854a                	mv	a0,s2
    8000268c:	00001097          	auipc	ra,0x1
    80002690:	42e080e7          	jalr	1070(ra) # 80003aba <holdingsleep>
    80002694:	c92d                	beqz	a0,80002706 <brelse+0x8e>
    panic("brelse");

  releasesleep(&b->lock);
    80002696:	854a                	mv	a0,s2
    80002698:	00001097          	auipc	ra,0x1
    8000269c:	3de080e7          	jalr	990(ra) # 80003a76 <releasesleep>

  acquire(&bcache.lock);
    800026a0:	0000c517          	auipc	a0,0xc
    800026a4:	31850513          	addi	a0,a0,792 # 8000e9b8 <bcache>
    800026a8:	00004097          	auipc	ra,0x4
    800026ac:	ccc080e7          	jalr	-820(ra) # 80006374 <acquire>
  b->refcnt--;
    800026b0:	40bc                	lw	a5,64(s1)
    800026b2:	37fd                	addiw	a5,a5,-1
    800026b4:	0007871b          	sext.w	a4,a5
    800026b8:	c0bc                	sw	a5,64(s1)
  if (b->refcnt == 0) {
    800026ba:	eb05                	bnez	a4,800026ea <brelse+0x72>
    // no one is waiting for it.
    b->next->prev = b->prev;
    800026bc:	68bc                	ld	a5,80(s1)
    800026be:	64b8                	ld	a4,72(s1)
    800026c0:	e7b8                	sd	a4,72(a5)
    b->prev->next = b->next;
    800026c2:	64bc                	ld	a5,72(s1)
    800026c4:	68b8                	ld	a4,80(s1)
    800026c6:	ebb8                	sd	a4,80(a5)
    b->next = bcache.head.next;
    800026c8:	00014797          	auipc	a5,0x14
    800026cc:	2f078793          	addi	a5,a5,752 # 800169b8 <bcache+0x8000>
    800026d0:	2b87b703          	ld	a4,696(a5)
    800026d4:	e8b8                	sd	a4,80(s1)
    b->prev = &bcache.head;
    800026d6:	00014717          	auipc	a4,0x14
    800026da:	54a70713          	addi	a4,a4,1354 # 80016c20 <bcache+0x8268>
    800026de:	e4b8                	sd	a4,72(s1)
    bcache.head.next->prev = b;
    800026e0:	2b87b703          	ld	a4,696(a5)
    800026e4:	e724                	sd	s1,72(a4)
    bcache.head.next = b;
    800026e6:	2a97bc23          	sd	s1,696(a5)
  }
  
  release(&bcache.lock);
    800026ea:	0000c517          	auipc	a0,0xc
    800026ee:	2ce50513          	addi	a0,a0,718 # 8000e9b8 <bcache>
    800026f2:	00004097          	auipc	ra,0x4
    800026f6:	d36080e7          	jalr	-714(ra) # 80006428 <release>
}
    800026fa:	60e2                	ld	ra,24(sp)
    800026fc:	6442                	ld	s0,16(sp)
    800026fe:	64a2                	ld	s1,8(sp)
    80002700:	6902                	ld	s2,0(sp)
    80002702:	6105                	addi	sp,sp,32
    80002704:	8082                	ret
    panic("brelse");
    80002706:	00006517          	auipc	a0,0x6
    8000270a:	e1250513          	addi	a0,a0,-494 # 80008518 <syscalls+0x128>
    8000270e:	00003097          	auipc	ra,0x3
    80002712:	72e080e7          	jalr	1838(ra) # 80005e3c <panic>

0000000080002716 <bpin>:

void
bpin(struct buf *b) {
    80002716:	1101                	addi	sp,sp,-32
    80002718:	ec06                	sd	ra,24(sp)
    8000271a:	e822                	sd	s0,16(sp)
    8000271c:	e426                	sd	s1,8(sp)
    8000271e:	1000                	addi	s0,sp,32
    80002720:	84aa                	mv	s1,a0
  acquire(&bcache.lock);
    80002722:	0000c517          	auipc	a0,0xc
    80002726:	29650513          	addi	a0,a0,662 # 8000e9b8 <bcache>
    8000272a:	00004097          	auipc	ra,0x4
    8000272e:	c4a080e7          	jalr	-950(ra) # 80006374 <acquire>
  b->refcnt++;
    80002732:	40bc                	lw	a5,64(s1)
    80002734:	2785                	addiw	a5,a5,1
    80002736:	c0bc                	sw	a5,64(s1)
  release(&bcache.lock);
    80002738:	0000c517          	auipc	a0,0xc
    8000273c:	28050513          	addi	a0,a0,640 # 8000e9b8 <bcache>
    80002740:	00004097          	auipc	ra,0x4
    80002744:	ce8080e7          	jalr	-792(ra) # 80006428 <release>
}
    80002748:	60e2                	ld	ra,24(sp)
    8000274a:	6442                	ld	s0,16(sp)
    8000274c:	64a2                	ld	s1,8(sp)
    8000274e:	6105                	addi	sp,sp,32
    80002750:	8082                	ret

0000000080002752 <bunpin>:

void
bunpin(struct buf *b) {
    80002752:	1101                	addi	sp,sp,-32
    80002754:	ec06                	sd	ra,24(sp)
    80002756:	e822                	sd	s0,16(sp)
    80002758:	e426                	sd	s1,8(sp)
    8000275a:	1000                	addi	s0,sp,32
    8000275c:	84aa                	mv	s1,a0
  acquire(&bcache.lock);
    8000275e:	0000c517          	auipc	a0,0xc
    80002762:	25a50513          	addi	a0,a0,602 # 8000e9b8 <bcache>
    80002766:	00004097          	auipc	ra,0x4
    8000276a:	c0e080e7          	jalr	-1010(ra) # 80006374 <acquire>
  b->refcnt--;
    8000276e:	40bc                	lw	a5,64(s1)
    80002770:	37fd                	addiw	a5,a5,-1
    80002772:	c0bc                	sw	a5,64(s1)
  release(&bcache.lock);
    80002774:	0000c517          	auipc	a0,0xc
    80002778:	24450513          	addi	a0,a0,580 # 8000e9b8 <bcache>
    8000277c:	00004097          	auipc	ra,0x4
    80002780:	cac080e7          	jalr	-852(ra) # 80006428 <release>
}
    80002784:	60e2                	ld	ra,24(sp)
    80002786:	6442                	ld	s0,16(sp)
    80002788:	64a2                	ld	s1,8(sp)
    8000278a:	6105                	addi	sp,sp,32
    8000278c:	8082                	ret

000000008000278e <bfree>:
}

// Free a disk block.
static void
bfree(int dev, uint b)
{
    8000278e:	1101                	addi	sp,sp,-32
    80002790:	ec06                	sd	ra,24(sp)
    80002792:	e822                	sd	s0,16(sp)
    80002794:	e426                	sd	s1,8(sp)
    80002796:	e04a                	sd	s2,0(sp)
    80002798:	1000                	addi	s0,sp,32
    8000279a:	84ae                	mv	s1,a1
  struct buf *bp;
  int bi, m;

  bp = bread(dev, BBLOCK(b, sb));
    8000279c:	00d5d59b          	srliw	a1,a1,0xd
    800027a0:	00015797          	auipc	a5,0x15
    800027a4:	8f47a783          	lw	a5,-1804(a5) # 80017094 <sb+0x1c>
    800027a8:	9dbd                	addw	a1,a1,a5
    800027aa:	00000097          	auipc	ra,0x0
    800027ae:	d9e080e7          	jalr	-610(ra) # 80002548 <bread>
  bi = b % BPB;
  m = 1 << (bi % 8);
    800027b2:	0074f713          	andi	a4,s1,7
    800027b6:	4785                	li	a5,1
    800027b8:	00e797bb          	sllw	a5,a5,a4
  if((bp->data[bi/8] & m) == 0)
    800027bc:	14ce                	slli	s1,s1,0x33
    800027be:	90d9                	srli	s1,s1,0x36
    800027c0:	00950733          	add	a4,a0,s1
    800027c4:	05874703          	lbu	a4,88(a4)
    800027c8:	00e7f6b3          	and	a3,a5,a4
    800027cc:	c69d                	beqz	a3,800027fa <bfree+0x6c>
    800027ce:	892a                	mv	s2,a0
    panic("freeing free block");
  bp->data[bi/8] &= ~m;
    800027d0:	94aa                	add	s1,s1,a0
    800027d2:	fff7c793          	not	a5,a5
    800027d6:	8f7d                	and	a4,a4,a5
    800027d8:	04e48c23          	sb	a4,88(s1)
  log_write(bp);
    800027dc:	00001097          	auipc	ra,0x1
    800027e0:	126080e7          	jalr	294(ra) # 80003902 <log_write>
  brelse(bp);
    800027e4:	854a                	mv	a0,s2
    800027e6:	00000097          	auipc	ra,0x0
    800027ea:	e92080e7          	jalr	-366(ra) # 80002678 <brelse>
}
    800027ee:	60e2                	ld	ra,24(sp)
    800027f0:	6442                	ld	s0,16(sp)
    800027f2:	64a2                	ld	s1,8(sp)
    800027f4:	6902                	ld	s2,0(sp)
    800027f6:	6105                	addi	sp,sp,32
    800027f8:	8082                	ret
    panic("freeing free block");
    800027fa:	00006517          	auipc	a0,0x6
    800027fe:	d2650513          	addi	a0,a0,-730 # 80008520 <syscalls+0x130>
    80002802:	00003097          	auipc	ra,0x3
    80002806:	63a080e7          	jalr	1594(ra) # 80005e3c <panic>

000000008000280a <balloc>:
{
    8000280a:	711d                	addi	sp,sp,-96
    8000280c:	ec86                	sd	ra,88(sp)
    8000280e:	e8a2                	sd	s0,80(sp)
    80002810:	e4a6                	sd	s1,72(sp)
    80002812:	e0ca                	sd	s2,64(sp)
    80002814:	fc4e                	sd	s3,56(sp)
    80002816:	f852                	sd	s4,48(sp)
    80002818:	f456                	sd	s5,40(sp)
    8000281a:	f05a                	sd	s6,32(sp)
    8000281c:	ec5e                	sd	s7,24(sp)
    8000281e:	e862                	sd	s8,16(sp)
    80002820:	e466                	sd	s9,8(sp)
    80002822:	1080                	addi	s0,sp,96
  for(b = 0; b < sb.size; b += BPB){
    80002824:	00015797          	auipc	a5,0x15
    80002828:	8587a783          	lw	a5,-1960(a5) # 8001707c <sb+0x4>
    8000282c:	cff5                	beqz	a5,80002928 <balloc+0x11e>
    8000282e:	8baa                	mv	s7,a0
    80002830:	4a81                	li	s5,0
    bp = bread(dev, BBLOCK(b, sb));
    80002832:	00015b17          	auipc	s6,0x15
    80002836:	846b0b13          	addi	s6,s6,-1978 # 80017078 <sb>
    for(bi = 0; bi < BPB && b + bi < sb.size; bi++){
    8000283a:	4c01                	li	s8,0
      m = 1 << (bi % 8);
    8000283c:	4985                	li	s3,1
    for(bi = 0; bi < BPB && b + bi < sb.size; bi++){
    8000283e:	6a09                	lui	s4,0x2
  for(b = 0; b < sb.size; b += BPB){
    80002840:	6c89                	lui	s9,0x2
    80002842:	a061                	j	800028ca <balloc+0xc0>
        bp->data[bi/8] |= m;  // Mark block in use.
    80002844:	97ca                	add	a5,a5,s2
    80002846:	8e55                	or	a2,a2,a3
    80002848:	04c78c23          	sb	a2,88(a5)
        log_write(bp);
    8000284c:	854a                	mv	a0,s2
    8000284e:	00001097          	auipc	ra,0x1
    80002852:	0b4080e7          	jalr	180(ra) # 80003902 <log_write>
        brelse(bp);
    80002856:	854a                	mv	a0,s2
    80002858:	00000097          	auipc	ra,0x0
    8000285c:	e20080e7          	jalr	-480(ra) # 80002678 <brelse>
  bp = bread(dev, bno);
    80002860:	85a6                	mv	a1,s1
    80002862:	855e                	mv	a0,s7
    80002864:	00000097          	auipc	ra,0x0
    80002868:	ce4080e7          	jalr	-796(ra) # 80002548 <bread>
    8000286c:	892a                	mv	s2,a0
  memset(bp->data, 0, BSIZE);
    8000286e:	40000613          	li	a2,1024
    80002872:	4581                	li	a1,0
    80002874:	05850513          	addi	a0,a0,88
    80002878:	ffffe097          	auipc	ra,0xffffe
    8000287c:	902080e7          	jalr	-1790(ra) # 8000017a <memset>
  log_write(bp);
    80002880:	854a                	mv	a0,s2
    80002882:	00001097          	auipc	ra,0x1
    80002886:	080080e7          	jalr	128(ra) # 80003902 <log_write>
  brelse(bp);
    8000288a:	854a                	mv	a0,s2
    8000288c:	00000097          	auipc	ra,0x0
    80002890:	dec080e7          	jalr	-532(ra) # 80002678 <brelse>
}
    80002894:	8526                	mv	a0,s1
    80002896:	60e6                	ld	ra,88(sp)
    80002898:	6446                	ld	s0,80(sp)
    8000289a:	64a6                	ld	s1,72(sp)
    8000289c:	6906                	ld	s2,64(sp)
    8000289e:	79e2                	ld	s3,56(sp)
    800028a0:	7a42                	ld	s4,48(sp)
    800028a2:	7aa2                	ld	s5,40(sp)
    800028a4:	7b02                	ld	s6,32(sp)
    800028a6:	6be2                	ld	s7,24(sp)
    800028a8:	6c42                	ld	s8,16(sp)
    800028aa:	6ca2                	ld	s9,8(sp)
    800028ac:	6125                	addi	sp,sp,96
    800028ae:	8082                	ret
    brelse(bp);
    800028b0:	854a                	mv	a0,s2
    800028b2:	00000097          	auipc	ra,0x0
    800028b6:	dc6080e7          	jalr	-570(ra) # 80002678 <brelse>
  for(b = 0; b < sb.size; b += BPB){
    800028ba:	015c87bb          	addw	a5,s9,s5
    800028be:	00078a9b          	sext.w	s5,a5
    800028c2:	004b2703          	lw	a4,4(s6)
    800028c6:	06eaf163          	bgeu	s5,a4,80002928 <balloc+0x11e>
    bp = bread(dev, BBLOCK(b, sb));
    800028ca:	41fad79b          	sraiw	a5,s5,0x1f
    800028ce:	0137d79b          	srliw	a5,a5,0x13
    800028d2:	015787bb          	addw	a5,a5,s5
    800028d6:	40d7d79b          	sraiw	a5,a5,0xd
    800028da:	01cb2583          	lw	a1,28(s6)
    800028de:	9dbd                	addw	a1,a1,a5
    800028e0:	855e                	mv	a0,s7
    800028e2:	00000097          	auipc	ra,0x0
    800028e6:	c66080e7          	jalr	-922(ra) # 80002548 <bread>
    800028ea:	892a                	mv	s2,a0
    for(bi = 0; bi < BPB && b + bi < sb.size; bi++){
    800028ec:	004b2503          	lw	a0,4(s6)
    800028f0:	000a849b          	sext.w	s1,s5
    800028f4:	8762                	mv	a4,s8
    800028f6:	faa4fde3          	bgeu	s1,a0,800028b0 <balloc+0xa6>
      m = 1 << (bi % 8);
    800028fa:	00777693          	andi	a3,a4,7
    800028fe:	00d996bb          	sllw	a3,s3,a3
      if((bp->data[bi/8] & m) == 0){  // Is block free?
    80002902:	41f7579b          	sraiw	a5,a4,0x1f
    80002906:	01d7d79b          	srliw	a5,a5,0x1d
    8000290a:	9fb9                	addw	a5,a5,a4
    8000290c:	4037d79b          	sraiw	a5,a5,0x3
    80002910:	00f90633          	add	a2,s2,a5
    80002914:	05864603          	lbu	a2,88(a2)
    80002918:	00c6f5b3          	and	a1,a3,a2
    8000291c:	d585                	beqz	a1,80002844 <balloc+0x3a>
    for(bi = 0; bi < BPB && b + bi < sb.size; bi++){
    8000291e:	2705                	addiw	a4,a4,1
    80002920:	2485                	addiw	s1,s1,1
    80002922:	fd471ae3          	bne	a4,s4,800028f6 <balloc+0xec>
    80002926:	b769                	j	800028b0 <balloc+0xa6>
  printf("balloc: out of blocks\n");
    80002928:	00006517          	auipc	a0,0x6
    8000292c:	c1050513          	addi	a0,a0,-1008 # 80008538 <syscalls+0x148>
    80002930:	00003097          	auipc	ra,0x3
    80002934:	556080e7          	jalr	1366(ra) # 80005e86 <printf>
  return 0;
    80002938:	4481                	li	s1,0
    8000293a:	bfa9                	j	80002894 <balloc+0x8a>

000000008000293c <bmap>:
// Return the disk block address of the nth block in inode ip.
// If there is no such block, bmap allocates one.
// returns 0 if out of disk space.
static uint
bmap(struct inode *ip, uint bn)
{
    8000293c:	7179                	addi	sp,sp,-48
    8000293e:	f406                	sd	ra,40(sp)
    80002940:	f022                	sd	s0,32(sp)
    80002942:	ec26                	sd	s1,24(sp)
    80002944:	e84a                	sd	s2,16(sp)
    80002946:	e44e                	sd	s3,8(sp)
    80002948:	e052                	sd	s4,0(sp)
    8000294a:	1800                	addi	s0,sp,48
    8000294c:	89aa                	mv	s3,a0
  uint addr, *a;
  struct buf *bp;

  if(bn < NDIRECT){
    8000294e:	47ad                	li	a5,11
    80002950:	02b7e863          	bltu	a5,a1,80002980 <bmap+0x44>
    if((addr = ip->addrs[bn]) == 0){
    80002954:	02059793          	slli	a5,a1,0x20
    80002958:	01e7d593          	srli	a1,a5,0x1e
    8000295c:	00b504b3          	add	s1,a0,a1
    80002960:	0504a903          	lw	s2,80(s1)
    80002964:	06091e63          	bnez	s2,800029e0 <bmap+0xa4>
      addr = balloc(ip->dev);
    80002968:	4108                	lw	a0,0(a0)
    8000296a:	00000097          	auipc	ra,0x0
    8000296e:	ea0080e7          	jalr	-352(ra) # 8000280a <balloc>
    80002972:	0005091b          	sext.w	s2,a0
      if(addr == 0)
    80002976:	06090563          	beqz	s2,800029e0 <bmap+0xa4>
        return 0;
      ip->addrs[bn] = addr;
    8000297a:	0524a823          	sw	s2,80(s1)
    8000297e:	a08d                	j	800029e0 <bmap+0xa4>
    }
    return addr;
  }
  bn -= NDIRECT;
    80002980:	ff45849b          	addiw	s1,a1,-12
    80002984:	0004871b          	sext.w	a4,s1

  if(bn < NINDIRECT){
    80002988:	0ff00793          	li	a5,255
    8000298c:	08e7e563          	bltu	a5,a4,80002a16 <bmap+0xda>
    // Load indirect block, allocating if necessary.
    if((addr = ip->addrs[NDIRECT]) == 0){
    80002990:	08052903          	lw	s2,128(a0)
    80002994:	00091d63          	bnez	s2,800029ae <bmap+0x72>
      addr = balloc(ip->dev);
    80002998:	4108                	lw	a0,0(a0)
    8000299a:	00000097          	auipc	ra,0x0
    8000299e:	e70080e7          	jalr	-400(ra) # 8000280a <balloc>
    800029a2:	0005091b          	sext.w	s2,a0
      if(addr == 0)
    800029a6:	02090d63          	beqz	s2,800029e0 <bmap+0xa4>
        return 0;
      ip->addrs[NDIRECT] = addr;
    800029aa:	0929a023          	sw	s2,128(s3)
    }
    bp = bread(ip->dev, addr);
    800029ae:	85ca                	mv	a1,s2
    800029b0:	0009a503          	lw	a0,0(s3)
    800029b4:	00000097          	auipc	ra,0x0
    800029b8:	b94080e7          	jalr	-1132(ra) # 80002548 <bread>
    800029bc:	8a2a                	mv	s4,a0
    a = (uint*)bp->data;
    800029be:	05850793          	addi	a5,a0,88
    if((addr = a[bn]) == 0){
    800029c2:	02049713          	slli	a4,s1,0x20
    800029c6:	01e75593          	srli	a1,a4,0x1e
    800029ca:	00b784b3          	add	s1,a5,a1
    800029ce:	0004a903          	lw	s2,0(s1)
    800029d2:	02090063          	beqz	s2,800029f2 <bmap+0xb6>
      if(addr){
        a[bn] = addr;
        log_write(bp);
      }
    }
    brelse(bp);
    800029d6:	8552                	mv	a0,s4
    800029d8:	00000097          	auipc	ra,0x0
    800029dc:	ca0080e7          	jalr	-864(ra) # 80002678 <brelse>
    return addr;
  }

  panic("bmap: out of range");
}
    800029e0:	854a                	mv	a0,s2
    800029e2:	70a2                	ld	ra,40(sp)
    800029e4:	7402                	ld	s0,32(sp)
    800029e6:	64e2                	ld	s1,24(sp)
    800029e8:	6942                	ld	s2,16(sp)
    800029ea:	69a2                	ld	s3,8(sp)
    800029ec:	6a02                	ld	s4,0(sp)
    800029ee:	6145                	addi	sp,sp,48
    800029f0:	8082                	ret
      addr = balloc(ip->dev);
    800029f2:	0009a503          	lw	a0,0(s3)
    800029f6:	00000097          	auipc	ra,0x0
    800029fa:	e14080e7          	jalr	-492(ra) # 8000280a <balloc>
    800029fe:	0005091b          	sext.w	s2,a0
      if(addr){
    80002a02:	fc090ae3          	beqz	s2,800029d6 <bmap+0x9a>
        a[bn] = addr;
    80002a06:	0124a023          	sw	s2,0(s1)
        log_write(bp);
    80002a0a:	8552                	mv	a0,s4
    80002a0c:	00001097          	auipc	ra,0x1
    80002a10:	ef6080e7          	jalr	-266(ra) # 80003902 <log_write>
    80002a14:	b7c9                	j	800029d6 <bmap+0x9a>
  panic("bmap: out of range");
    80002a16:	00006517          	auipc	a0,0x6
    80002a1a:	b3a50513          	addi	a0,a0,-1222 # 80008550 <syscalls+0x160>
    80002a1e:	00003097          	auipc	ra,0x3
    80002a22:	41e080e7          	jalr	1054(ra) # 80005e3c <panic>

0000000080002a26 <iget>:
{
    80002a26:	7179                	addi	sp,sp,-48
    80002a28:	f406                	sd	ra,40(sp)
    80002a2a:	f022                	sd	s0,32(sp)
    80002a2c:	ec26                	sd	s1,24(sp)
    80002a2e:	e84a                	sd	s2,16(sp)
    80002a30:	e44e                	sd	s3,8(sp)
    80002a32:	e052                	sd	s4,0(sp)
    80002a34:	1800                	addi	s0,sp,48
    80002a36:	89aa                	mv	s3,a0
    80002a38:	8a2e                	mv	s4,a1
  acquire(&itable.lock);
    80002a3a:	00014517          	auipc	a0,0x14
    80002a3e:	65e50513          	addi	a0,a0,1630 # 80017098 <itable>
    80002a42:	00004097          	auipc	ra,0x4
    80002a46:	932080e7          	jalr	-1742(ra) # 80006374 <acquire>
  empty = 0;
    80002a4a:	4901                	li	s2,0
  for(ip = &itable.inode[0]; ip < &itable.inode[NINODE]; ip++){
    80002a4c:	00014497          	auipc	s1,0x14
    80002a50:	66448493          	addi	s1,s1,1636 # 800170b0 <itable+0x18>
    80002a54:	00016697          	auipc	a3,0x16
    80002a58:	0ec68693          	addi	a3,a3,236 # 80018b40 <log>
    80002a5c:	a039                	j	80002a6a <iget+0x44>
    if(empty == 0 && ip->ref == 0)    // Remember empty slot.
    80002a5e:	02090b63          	beqz	s2,80002a94 <iget+0x6e>
  for(ip = &itable.inode[0]; ip < &itable.inode[NINODE]; ip++){
    80002a62:	08848493          	addi	s1,s1,136
    80002a66:	02d48a63          	beq	s1,a3,80002a9a <iget+0x74>
    if(ip->ref > 0 && ip->dev == dev && ip->inum == inum){
    80002a6a:	449c                	lw	a5,8(s1)
    80002a6c:	fef059e3          	blez	a5,80002a5e <iget+0x38>
    80002a70:	4098                	lw	a4,0(s1)
    80002a72:	ff3716e3          	bne	a4,s3,80002a5e <iget+0x38>
    80002a76:	40d8                	lw	a4,4(s1)
    80002a78:	ff4713e3          	bne	a4,s4,80002a5e <iget+0x38>
      ip->ref++;
    80002a7c:	2785                	addiw	a5,a5,1
    80002a7e:	c49c                	sw	a5,8(s1)
      release(&itable.lock);
    80002a80:	00014517          	auipc	a0,0x14
    80002a84:	61850513          	addi	a0,a0,1560 # 80017098 <itable>
    80002a88:	00004097          	auipc	ra,0x4
    80002a8c:	9a0080e7          	jalr	-1632(ra) # 80006428 <release>
      return ip;
    80002a90:	8926                	mv	s2,s1
    80002a92:	a03d                	j	80002ac0 <iget+0x9a>
    if(empty == 0 && ip->ref == 0)    // Remember empty slot.
    80002a94:	f7f9                	bnez	a5,80002a62 <iget+0x3c>
    80002a96:	8926                	mv	s2,s1
    80002a98:	b7e9                	j	80002a62 <iget+0x3c>
  if(empty == 0)
    80002a9a:	02090c63          	beqz	s2,80002ad2 <iget+0xac>
  ip->dev = dev;
    80002a9e:	01392023          	sw	s3,0(s2)
  ip->inum = inum;
    80002aa2:	01492223          	sw	s4,4(s2)
  ip->ref = 1;
    80002aa6:	4785                	li	a5,1
    80002aa8:	00f92423          	sw	a5,8(s2)
  ip->valid = 0;
    80002aac:	04092023          	sw	zero,64(s2)
  release(&itable.lock);
    80002ab0:	00014517          	auipc	a0,0x14
    80002ab4:	5e850513          	addi	a0,a0,1512 # 80017098 <itable>
    80002ab8:	00004097          	auipc	ra,0x4
    80002abc:	970080e7          	jalr	-1680(ra) # 80006428 <release>
}
    80002ac0:	854a                	mv	a0,s2
    80002ac2:	70a2                	ld	ra,40(sp)
    80002ac4:	7402                	ld	s0,32(sp)
    80002ac6:	64e2                	ld	s1,24(sp)
    80002ac8:	6942                	ld	s2,16(sp)
    80002aca:	69a2                	ld	s3,8(sp)
    80002acc:	6a02                	ld	s4,0(sp)
    80002ace:	6145                	addi	sp,sp,48
    80002ad0:	8082                	ret
    panic("iget: no inodes");
    80002ad2:	00006517          	auipc	a0,0x6
    80002ad6:	a9650513          	addi	a0,a0,-1386 # 80008568 <syscalls+0x178>
    80002ada:	00003097          	auipc	ra,0x3
    80002ade:	362080e7          	jalr	866(ra) # 80005e3c <panic>

0000000080002ae2 <fsinit>:
fsinit(int dev) {
    80002ae2:	7179                	addi	sp,sp,-48
    80002ae4:	f406                	sd	ra,40(sp)
    80002ae6:	f022                	sd	s0,32(sp)
    80002ae8:	ec26                	sd	s1,24(sp)
    80002aea:	e84a                	sd	s2,16(sp)
    80002aec:	e44e                	sd	s3,8(sp)
    80002aee:	1800                	addi	s0,sp,48
    80002af0:	892a                	mv	s2,a0
  bp = bread(dev, 1);
    80002af2:	4585                	li	a1,1
    80002af4:	00000097          	auipc	ra,0x0
    80002af8:	a54080e7          	jalr	-1452(ra) # 80002548 <bread>
    80002afc:	84aa                	mv	s1,a0
  memmove(sb, bp->data, sizeof(*sb));
    80002afe:	00014997          	auipc	s3,0x14
    80002b02:	57a98993          	addi	s3,s3,1402 # 80017078 <sb>
    80002b06:	02000613          	li	a2,32
    80002b0a:	05850593          	addi	a1,a0,88
    80002b0e:	854e                	mv	a0,s3
    80002b10:	ffffd097          	auipc	ra,0xffffd
    80002b14:	6c6080e7          	jalr	1734(ra) # 800001d6 <memmove>
  brelse(bp);
    80002b18:	8526                	mv	a0,s1
    80002b1a:	00000097          	auipc	ra,0x0
    80002b1e:	b5e080e7          	jalr	-1186(ra) # 80002678 <brelse>
  if(sb.magic != FSMAGIC)
    80002b22:	0009a703          	lw	a4,0(s3)
    80002b26:	102037b7          	lui	a5,0x10203
    80002b2a:	04078793          	addi	a5,a5,64 # 10203040 <_entry-0x6fdfcfc0>
    80002b2e:	02f71263          	bne	a4,a5,80002b52 <fsinit+0x70>
  initlog(dev, &sb);
    80002b32:	00014597          	auipc	a1,0x14
    80002b36:	54658593          	addi	a1,a1,1350 # 80017078 <sb>
    80002b3a:	854a                	mv	a0,s2
    80002b3c:	00001097          	auipc	ra,0x1
    80002b40:	b4a080e7          	jalr	-1206(ra) # 80003686 <initlog>
}
    80002b44:	70a2                	ld	ra,40(sp)
    80002b46:	7402                	ld	s0,32(sp)
    80002b48:	64e2                	ld	s1,24(sp)
    80002b4a:	6942                	ld	s2,16(sp)
    80002b4c:	69a2                	ld	s3,8(sp)
    80002b4e:	6145                	addi	sp,sp,48
    80002b50:	8082                	ret
    panic("invalid file system");
    80002b52:	00006517          	auipc	a0,0x6
    80002b56:	a2650513          	addi	a0,a0,-1498 # 80008578 <syscalls+0x188>
    80002b5a:	00003097          	auipc	ra,0x3
    80002b5e:	2e2080e7          	jalr	738(ra) # 80005e3c <panic>

0000000080002b62 <iinit>:
{
    80002b62:	7179                	addi	sp,sp,-48
    80002b64:	f406                	sd	ra,40(sp)
    80002b66:	f022                	sd	s0,32(sp)
    80002b68:	ec26                	sd	s1,24(sp)
    80002b6a:	e84a                	sd	s2,16(sp)
    80002b6c:	e44e                	sd	s3,8(sp)
    80002b6e:	1800                	addi	s0,sp,48
  initlock(&itable.lock, "itable");
    80002b70:	00006597          	auipc	a1,0x6
